
./chall:     file format elf64-x86-64


Disassembly of section .init:

0000000000001000 <_init>:
    1000:	f3 0f 1e fa          	endbr64
    1004:	48 83 ec 08          	sub    $0x8,%rsp
    1008:	48 8b 05 c9 0f 01 00 	mov    0x10fc9(%rip),%rax        # 11fd8 <__gmon_start__>
    100f:	48 85 c0             	test   %rax,%rax
    1012:	74 02                	je     1016 <_init+0x16>
    1014:	ff d0                	call   *%rax
    1016:	48 83 c4 08          	add    $0x8,%rsp
    101a:	c3                   	ret

Disassembly of section .plt:

0000000000001020 <.plt>:
    1020:	ff 35 fa 0e 01 00    	push   0x10efa(%rip)        # 11f20 <_GLOBAL_OFFSET_TABLE_+0x8>
    1026:	f2 ff 25 fb 0e 01 00 	bnd jmp *0x10efb(%rip)        # 11f28 <_GLOBAL_OFFSET_TABLE_+0x10>
    102d:	0f 1f 00             	nopl   (%rax)
    1030:	f3 0f 1e fa          	endbr64
    1034:	68 00 00 00 00       	push   $0x0
    1039:	f2 e9 e1 ff ff ff    	bnd jmp 1020 <.plt>
    103f:	90                   	nop
    1040:	f3 0f 1e fa          	endbr64
    1044:	68 01 00 00 00       	push   $0x1
    1049:	f2 e9 d1 ff ff ff    	bnd jmp 1020 <.plt>
    104f:	90                   	nop
    1050:	f3 0f 1e fa          	endbr64
    1054:	68 02 00 00 00       	push   $0x2
    1059:	f2 e9 c1 ff ff ff    	bnd jmp 1020 <.plt>
    105f:	90                   	nop
    1060:	f3 0f 1e fa          	endbr64
    1064:	68 03 00 00 00       	push   $0x3
    1069:	f2 e9 b1 ff ff ff    	bnd jmp 1020 <.plt>
    106f:	90                   	nop
    1070:	f3 0f 1e fa          	endbr64
    1074:	68 04 00 00 00       	push   $0x4
    1079:	f2 e9 a1 ff ff ff    	bnd jmp 1020 <.plt>
    107f:	90                   	nop
    1080:	f3 0f 1e fa          	endbr64
    1084:	68 05 00 00 00       	push   $0x5
    1089:	f2 e9 91 ff ff ff    	bnd jmp 1020 <.plt>
    108f:	90                   	nop
    1090:	f3 0f 1e fa          	endbr64
    1094:	68 06 00 00 00       	push   $0x6
    1099:	f2 e9 81 ff ff ff    	bnd jmp 1020 <.plt>
    109f:	90                   	nop
    10a0:	f3 0f 1e fa          	endbr64
    10a4:	68 07 00 00 00       	push   $0x7
    10a9:	f2 e9 71 ff ff ff    	bnd jmp 1020 <.plt>
    10af:	90                   	nop
    10b0:	f3 0f 1e fa          	endbr64
    10b4:	68 08 00 00 00       	push   $0x8
    10b9:	f2 e9 61 ff ff ff    	bnd jmp 1020 <.plt>
    10bf:	90                   	nop
    10c0:	f3 0f 1e fa          	endbr64
    10c4:	68 09 00 00 00       	push   $0x9
    10c9:	f2 e9 51 ff ff ff    	bnd jmp 1020 <.plt>
    10cf:	90                   	nop
    10d0:	f3 0f 1e fa          	endbr64
    10d4:	68 0a 00 00 00       	push   $0xa
    10d9:	f2 e9 41 ff ff ff    	bnd jmp 1020 <.plt>
    10df:	90                   	nop
    10e0:	f3 0f 1e fa          	endbr64
    10e4:	68 0b 00 00 00       	push   $0xb
    10e9:	f2 e9 31 ff ff ff    	bnd jmp 1020 <.plt>
    10ef:	90                   	nop
    10f0:	f3 0f 1e fa          	endbr64
    10f4:	68 0c 00 00 00       	push   $0xc
    10f9:	f2 e9 21 ff ff ff    	bnd jmp 1020 <.plt>
    10ff:	90                   	nop
    1100:	f3 0f 1e fa          	endbr64
    1104:	68 0d 00 00 00       	push   $0xd
    1109:	f2 e9 11 ff ff ff    	bnd jmp 1020 <.plt>
    110f:	90                   	nop
    1110:	f3 0f 1e fa          	endbr64
    1114:	68 0e 00 00 00       	push   $0xe
    1119:	f2 e9 01 ff ff ff    	bnd jmp 1020 <.plt>
    111f:	90                   	nop
    1120:	f3 0f 1e fa          	endbr64
    1124:	68 0f 00 00 00       	push   $0xf
    1129:	f2 e9 f1 fe ff ff    	bnd jmp 1020 <.plt>
    112f:	90                   	nop
    1130:	f3 0f 1e fa          	endbr64
    1134:	68 10 00 00 00       	push   $0x10
    1139:	f2 e9 e1 fe ff ff    	bnd jmp 1020 <.plt>
    113f:	90                   	nop
    1140:	f3 0f 1e fa          	endbr64
    1144:	68 11 00 00 00       	push   $0x11
    1149:	f2 e9 d1 fe ff ff    	bnd jmp 1020 <.plt>
    114f:	90                   	nop
    1150:	f3 0f 1e fa          	endbr64
    1154:	68 12 00 00 00       	push   $0x12
    1159:	f2 e9 c1 fe ff ff    	bnd jmp 1020 <.plt>
    115f:	90                   	nop

Disassembly of section .plt.got:

0000000000001160 <__cxa_finalize@plt>:
    1160:	f3 0f 1e fa          	endbr64
    1164:	f2 ff 25 7d 0e 01 00 	bnd jmp *0x10e7d(%rip)        # 11fe8 <__cxa_finalize@GLIBC_2.2.5>
    116b:	0f 1f 44 00 00       	nopl   0x0(%rax,%rax,1)

Disassembly of section .plt.sec:

0000000000001170 <free@plt>:
    1170:	f3 0f 1e fa          	endbr64
    1174:	f2 ff 25 b5 0d 01 00 	bnd jmp *0x10db5(%rip)        # 11f30 <free@GLIBC_2.2.5>
    117b:	0f 1f 44 00 00       	nopl   0x0(%rax,%rax,1)

0000000000001180 <putchar@plt>:
    1180:	f3 0f 1e fa          	endbr64
    1184:	f2 ff 25 ad 0d 01 00 	bnd jmp *0x10dad(%rip)        # 11f38 <putchar@GLIBC_2.2.5>
    118b:	0f 1f 44 00 00       	nopl   0x0(%rax,%rax,1)

0000000000001190 <__errno_location@plt>:
    1190:	f3 0f 1e fa          	endbr64
    1194:	f2 ff 25 a5 0d 01 00 	bnd jmp *0x10da5(%rip)        # 11f40 <__errno_location@GLIBC_2.2.5>
    119b:	0f 1f 44 00 00       	nopl   0x0(%rax,%rax,1)

00000000000011a0 <puts@plt>:
    11a0:	f3 0f 1e fa          	endbr64
    11a4:	f2 ff 25 9d 0d 01 00 	bnd jmp *0x10d9d(%rip)        # 11f48 <puts@GLIBC_2.2.5>
    11ab:	0f 1f 44 00 00       	nopl   0x0(%rax,%rax,1)

00000000000011b0 <fread@plt>:
    11b0:	f3 0f 1e fa          	endbr64
    11b4:	f2 ff 25 95 0d 01 00 	bnd jmp *0x10d95(%rip)        # 11f50 <fread@GLIBC_2.2.5>
    11bb:	0f 1f 44 00 00       	nopl   0x0(%rax,%rax,1)

00000000000011c0 <fclose@plt>:
    11c0:	f3 0f 1e fa          	endbr64
    11c4:	f2 ff 25 8d 0d 01 00 	bnd jmp *0x10d8d(%rip)        # 11f58 <fclose@GLIBC_2.2.5>
    11cb:	0f 1f 44 00 00       	nopl   0x0(%rax,%rax,1)

00000000000011d0 <__stack_chk_fail@plt>:
    11d0:	f3 0f 1e fa          	endbr64
    11d4:	f2 ff 25 85 0d 01 00 	bnd jmp *0x10d85(%rip)        # 11f60 <__stack_chk_fail@GLIBC_2.4>
    11db:	0f 1f 44 00 00       	nopl   0x0(%rax,%rax,1)

00000000000011e0 <printf@plt>:
    11e0:	f3 0f 1e fa          	endbr64
    11e4:	f2 ff 25 7d 0d 01 00 	bnd jmp *0x10d7d(%rip)        # 11f68 <printf@GLIBC_2.2.5>
    11eb:	0f 1f 44 00 00       	nopl   0x0(%rax,%rax,1)

00000000000011f0 <__assert_fail@plt>:
    11f0:	f3 0f 1e fa          	endbr64
    11f4:	f2 ff 25 75 0d 01 00 	bnd jmp *0x10d75(%rip)        # 11f70 <__assert_fail@GLIBC_2.2.5>
    11fb:	0f 1f 44 00 00       	nopl   0x0(%rax,%rax,1)

0000000000001200 <memset@plt>:
    1200:	f3 0f 1e fa          	endbr64
    1204:	f2 ff 25 6d 0d 01 00 	bnd jmp *0x10d6d(%rip)        # 11f78 <memset@GLIBC_2.2.5>
    120b:	0f 1f 44 00 00       	nopl   0x0(%rax,%rax,1)

0000000000001210 <memcmp@plt>:
    1210:	f3 0f 1e fa          	endbr64
    1214:	f2 ff 25 65 0d 01 00 	bnd jmp *0x10d65(%rip)        # 11f80 <memcmp@GLIBC_2.2.5>
    121b:	0f 1f 44 00 00       	nopl   0x0(%rax,%rax,1)

0000000000001220 <strcmp@plt>:
    1220:	f3 0f 1e fa          	endbr64
    1224:	f2 ff 25 5d 0d 01 00 	bnd jmp *0x10d5d(%rip)        # 11f88 <strcmp@GLIBC_2.2.5>
    122b:	0f 1f 44 00 00       	nopl   0x0(%rax,%rax,1)

0000000000001230 <memcpy@plt>:
    1230:	f3 0f 1e fa          	endbr64
    1234:	f2 ff 25 55 0d 01 00 	bnd jmp *0x10d55(%rip)        # 11f90 <memcpy@GLIBC_2.14>
    123b:	0f 1f 44 00 00       	nopl   0x0(%rax,%rax,1)

0000000000001240 <malloc@plt>:
    1240:	f3 0f 1e fa          	endbr64
    1244:	f2 ff 25 4d 0d 01 00 	bnd jmp *0x10d4d(%rip)        # 11f98 <malloc@GLIBC_2.2.5>
    124b:	0f 1f 44 00 00       	nopl   0x0(%rax,%rax,1)

0000000000001250 <memmove@plt>:
    1250:	f3 0f 1e fa          	endbr64
    1254:	f2 ff 25 45 0d 01 00 	bnd jmp *0x10d45(%rip)        # 11fa0 <memmove@GLIBC_2.2.5>
    125b:	0f 1f 44 00 00       	nopl   0x0(%rax,%rax,1)

0000000000001260 <fopen@plt>:
    1260:	f3 0f 1e fa          	endbr64
    1264:	f2 ff 25 3d 0d 01 00 	bnd jmp *0x10d3d(%rip)        # 11fa8 <fopen@GLIBC_2.2.5>
    126b:	0f 1f 44 00 00       	nopl   0x0(%rax,%rax,1)

0000000000001270 <exit@plt>:
    1270:	f3 0f 1e fa          	endbr64
    1274:	f2 ff 25 35 0d 01 00 	bnd jmp *0x10d35(%rip)        # 11fb0 <exit@GLIBC_2.2.5>
    127b:	0f 1f 44 00 00       	nopl   0x0(%rax,%rax,1)

0000000000001280 <fwrite@plt>:
    1280:	f3 0f 1e fa          	endbr64
    1284:	f2 ff 25 2d 0d 01 00 	bnd jmp *0x10d2d(%rip)        # 11fb8 <fwrite@GLIBC_2.2.5>
    128b:	0f 1f 44 00 00       	nopl   0x0(%rax,%rax,1)

0000000000001290 <getrandom@plt>:
    1290:	f3 0f 1e fa          	endbr64
    1294:	f2 ff 25 25 0d 01 00 	bnd jmp *0x10d25(%rip)        # 11fc0 <getrandom@GLIBC_2.25>
    129b:	0f 1f 44 00 00       	nopl   0x0(%rax,%rax,1)

Disassembly of section .text:

00000000000012a0 <_start>:
    12a0:	f3 0f 1e fa          	endbr64
    12a4:	31 ed                	xor    %ebp,%ebp
    12a6:	49 89 d1             	mov    %rdx,%r9
    12a9:	5e                   	pop    %rsi
    12aa:	48 89 e2             	mov    %rsp,%rdx
    12ad:	48 83 e4 f0          	and    $0xfffffffffffffff0,%rsp
    12b1:	50                   	push   %rax
    12b2:	54                   	push   %rsp
    12b3:	4c 8d 05 e6 cc 00 00 	lea    0xcce6(%rip),%r8        # dfa0 <__libc_csu_fini>
    12ba:	48 8d 0d 6f cc 00 00 	lea    0xcc6f(%rip),%rcx        # df30 <__libc_csu_init>
    12c1:	48 8d 3d aa 07 00 00 	lea    0x7aa(%rip),%rdi        # 1a72 <main>
    12c8:	ff 15 02 0d 01 00    	call   *0x10d02(%rip)        # 11fd0 <__libc_start_main@GLIBC_2.2.5>
    12ce:	f4                   	hlt
    12cf:	90                   	nop

00000000000012d0 <deregister_tm_clones>:
    12d0:	48 8d 3d 49 0d 01 00 	lea    0x10d49(%rip),%rdi        # 12020 <__TMC_END__>
    12d7:	48 8d 05 42 0d 01 00 	lea    0x10d42(%rip),%rax        # 12020 <__TMC_END__>
    12de:	48 39 f8             	cmp    %rdi,%rax
    12e1:	74 15                	je     12f8 <deregister_tm_clones+0x28>
    12e3:	48 8b 05 de 0c 01 00 	mov    0x10cde(%rip),%rax        # 11fc8 <_ITM_deregisterTMCloneTable>
    12ea:	48 85 c0             	test   %rax,%rax
    12ed:	74 09                	je     12f8 <deregister_tm_clones+0x28>
    12ef:	ff e0                	jmp    *%rax
    12f1:	0f 1f 80 00 00 00 00 	nopl   0x0(%rax)
    12f8:	c3                   	ret
    12f9:	0f 1f 80 00 00 00 00 	nopl   0x0(%rax)

0000000000001300 <register_tm_clones>:
    1300:	48 8d 3d 19 0d 01 00 	lea    0x10d19(%rip),%rdi        # 12020 <__TMC_END__>
    1307:	48 8d 35 12 0d 01 00 	lea    0x10d12(%rip),%rsi        # 12020 <__TMC_END__>
    130e:	48 29 fe             	sub    %rdi,%rsi
    1311:	48 89 f0             	mov    %rsi,%rax
    1314:	48 c1 ee 3f          	shr    $0x3f,%rsi
    1318:	48 c1 f8 03          	sar    $0x3,%rax
    131c:	48 01 c6             	add    %rax,%rsi
    131f:	48 d1 fe             	sar    $1,%rsi
    1322:	74 14                	je     1338 <register_tm_clones+0x38>
    1324:	48 8b 05 b5 0c 01 00 	mov    0x10cb5(%rip),%rax        # 11fe0 <_ITM_registerTMCloneTable>
    132b:	48 85 c0             	test   %rax,%rax
    132e:	74 08                	je     1338 <register_tm_clones+0x38>
    1330:	ff e0                	jmp    *%rax
    1332:	66 0f 1f 44 00 00    	nopw   0x0(%rax,%rax,1)
    1338:	c3                   	ret
    1339:	0f 1f 80 00 00 00 00 	nopl   0x0(%rax)

0000000000001340 <__do_global_dtors_aux>:
    1340:	f3 0f 1e fa          	endbr64
    1344:	80 3d d5 0c 01 00 00 	cmpb   $0x0,0x10cd5(%rip)        # 12020 <__TMC_END__>
    134b:	75 2b                	jne    1378 <__do_global_dtors_aux+0x38>
    134d:	55                   	push   %rbp
    134e:	48 83 3d 92 0c 01 00 	cmpq   $0x0,0x10c92(%rip)        # 11fe8 <__cxa_finalize@GLIBC_2.2.5>
    1355:	00 
    1356:	48 89 e5             	mov    %rsp,%rbp
    1359:	74 0c                	je     1367 <__do_global_dtors_aux+0x27>
    135b:	48 8b 3d a6 0c 01 00 	mov    0x10ca6(%rip),%rdi        # 12008 <__dso_handle>
    1362:	e8 f9 fd ff ff       	call   1160 <__cxa_finalize@plt>
    1367:	e8 64 ff ff ff       	call   12d0 <deregister_tm_clones>
    136c:	c6 05 ad 0c 01 00 01 	movb   $0x1,0x10cad(%rip)        # 12020 <__TMC_END__>
    1373:	5d                   	pop    %rbp
    1374:	c3                   	ret
    1375:	0f 1f 00             	nopl   (%rax)
    1378:	c3                   	ret
    1379:	0f 1f 80 00 00 00 00 	nopl   0x0(%rax)

0000000000001380 <frame_dummy>:
    1380:	f3 0f 1e fa          	endbr64
    1384:	e9 77 ff ff ff       	jmp    1300 <register_tm_clones>

0000000000001389 <print_hex>:
    1389:	f3 0f 1e fa          	endbr64
    138d:	55                   	push   %rbp
    138e:	48 89 e5             	mov    %rsp,%rbp
    1391:	48 83 ec 20          	sub    $0x20,%rsp
    1395:	48 89 7d e8          	mov    %rdi,-0x18(%rbp)
    1399:	89 75 e4             	mov    %esi,-0x1c(%rbp)
    139c:	c7 45 fc 00 00 00 00 	movl   $0x0,-0x4(%rbp)
    13a3:	eb 29                	jmp    13ce <print_hex+0x45>
    13a5:	8b 45 fc             	mov    -0x4(%rbp),%eax
    13a8:	48 98                	cltq
    13aa:	48 8b 55 e8          	mov    -0x18(%rbp),%rdx
    13ae:	48 01 d0             	add    %rdx,%rax
    13b1:	0f b6 00             	movzbl (%rax),%eax
    13b4:	0f b6 c0             	movzbl %al,%eax
    13b7:	89 c6                	mov    %eax,%esi
    13b9:	48 8d 3d 44 cc 00 00 	lea    0xcc44(%rip),%rdi        # e004 <_IO_stdin_used+0x4>
    13c0:	b8 00 00 00 00       	mov    $0x0,%eax
    13c5:	e8 16 fe ff ff       	call   11e0 <printf@plt>
    13ca:	83 45 fc 01          	addl   $0x1,-0x4(%rbp)
    13ce:	8b 45 fc             	mov    -0x4(%rbp),%eax
    13d1:	3b 45 e4             	cmp    -0x1c(%rbp),%eax
    13d4:	7c cf                	jl     13a5 <print_hex+0x1c>
    13d6:	bf 0a 00 00 00       	mov    $0xa,%edi
    13db:	e8 a0 fd ff ff       	call   1180 <putchar@plt>
    13e0:	90                   	nop
    13e1:	c9                   	leave
    13e2:	c3                   	ret

00000000000013e3 <gen_key>:
    13e3:	f3 0f 1e fa          	endbr64
    13e7:	55                   	push   %rbp
    13e8:	48 89 e5             	mov    %rsp,%rbp
    13eb:	48 81 ec 00 10 00 00 	sub    $0x1000,%rsp
    13f2:	48 83 0c 24 00       	orq    $0x0,(%rsp)
    13f7:	48 81 ec 60 06 00 00 	sub    $0x660,%rsp
    13fe:	48 89 bd a8 e9 ff ff 	mov    %rdi,-0x1658(%rbp)
    1405:	64 48 8b 04 25 28 00 	mov    %fs:0x28,%rax
    140c:	00 00 
    140e:	48 89 45 f8          	mov    %rax,-0x8(%rbp)
    1412:	31 c0                	xor    %eax,%eax
    1414:	48 c7 85 40 ea ff ff 	movq   $0x0,-0x15c0(%rbp)
    141b:	00 00 00 00 
    141f:	48 c7 85 48 ea ff ff 	movq   $0x0,-0x15b8(%rbp)
    1426:	00 00 00 00 
    142a:	48 8d 85 50 ea ff ff 	lea    -0x15b0(%rbp),%rax
    1431:	ba a3 15 00 00       	mov    $0x15a3,%edx
    1436:	be 00 00 00 00       	mov    $0x0,%esi
    143b:	48 89 c7             	mov    %rax,%rdi
    143e:	e8 bd fd ff ff       	call   1200 <memset@plt>
    1443:	48 c7 85 e0 e9 ff ff 	movq   $0x0,-0x1620(%rbp)
    144a:	00 00 00 00 
    144e:	48 c7 85 e8 e9 ff ff 	movq   $0x0,-0x1618(%rbp)
    1455:	00 00 00 00 
    1459:	48 c7 85 f0 e9 ff ff 	movq   $0x0,-0x1610(%rbp)
    1460:	00 00 00 00 
    1464:	48 c7 85 f8 e9 ff ff 	movq   $0x0,-0x1608(%rbp)
    146b:	00 00 00 00 
    146f:	48 c7 85 00 ea ff ff 	movq   $0x0,-0x1600(%rbp)
    1476:	00 00 00 00 
    147a:	c6 85 08 ea ff ff 00 	movb   $0x0,-0x15f8(%rbp)
    1481:	48 8d 85 40 ea ff ff 	lea    -0x15c0(%rbp),%rax
    1488:	48 83 c8 01          	or     $0x1,%rax
    148c:	48 89 85 c0 e9 ff ff 	mov    %rax,-0x1640(%rbp)
    1493:	48 8d 85 e0 e9 ff ff 	lea    -0x1620(%rbp),%rax
    149a:	48 83 c8 01          	or     $0x1,%rax
    149e:	48 89 85 c8 e9 ff ff 	mov    %rax,-0x1638(%rbp)
    14a5:	48 c7 85 10 ea ff ff 	movq   $0x0,-0x15f0(%rbp)
    14ac:	00 00 00 00 
    14b0:	48 c7 85 18 ea ff ff 	movq   $0x0,-0x15e8(%rbp)
    14b7:	00 00 00 00 
    14bb:	48 c7 85 20 ea ff ff 	movq   $0x0,-0x15e0(%rbp)
    14c2:	00 00 00 00 
    14c6:	48 c7 85 28 ea ff ff 	movq   $0x0,-0x15d8(%rbp)
    14cd:	00 00 00 00 
    14d1:	48 c7 85 30 ea ff ff 	movq   $0x0,-0x15d0(%rbp)
    14d8:	00 00 00 00 
    14dc:	48 c7 85 38 ea ff ff 	movq   $0x0,-0x15c8(%rbp)
    14e3:	00 00 00 00 
    14e7:	48 8d 85 10 ea ff ff 	lea    -0x15f0(%rbp),%rax
    14ee:	ba 00 01 00 00       	mov    $0x100,%edx
    14f3:	be 00 00 00 00       	mov    $0x0,%esi
    14f8:	48 89 c7             	mov    %rax,%rdi
    14fb:	e8 d6 73 00 00       	call   88d6 <randombytes_init>
    1500:	48 8b 95 c8 e9 ff ff 	mov    -0x1638(%rbp),%rdx
    1507:	48 8b 8d c0 e9 ff ff 	mov    -0x1640(%rbp),%rcx
    150e:	48 8b 85 a8 e9 ff ff 	mov    -0x1658(%rbp),%rax
    1515:	48 89 ce             	mov    %rcx,%rsi
    1518:	48 89 c7             	mov    %rax,%rdi
    151b:	e8 13 3b 00 00       	call   5033 <mayo_keypair>
    1520:	89 85 bc e9 ff ff    	mov    %eax,-0x1644(%rbp)
    1526:	83 bd bc e9 ff ff 00 	cmpl   $0x0,-0x1644(%rbp)
    152d:	74 1b                	je     154a <gen_key+0x167>
    152f:	c7 85 bc e9 ff ff ff 	movl   $0xffffffff,-0x1644(%rbp)
    1536:	ff ff ff 
    1539:	48 8d 3d c9 ca 00 00 	lea    0xcac9(%rip),%rdi        # e009 <_IO_stdin_used+0x9>
    1540:	e8 5b fc ff ff       	call   11a0 <puts@plt>
    1545:	e9 b2 00 00 00       	jmp    15fc <gen_key+0x219>
    154a:	48 8d 35 c7 ca 00 00 	lea    0xcac7(%rip),%rsi        # e018 <_IO_stdin_used+0x18>
    1551:	48 8d 3d c2 ca 00 00 	lea    0xcac2(%rip),%rdi        # e01a <_IO_stdin_used+0x1a>
    1558:	e8 03 fd ff ff       	call   1260 <fopen@plt>
    155d:	48 89 85 d0 e9 ff ff 	mov    %rax,-0x1630(%rbp)
    1564:	48 8d 35 ad ca 00 00 	lea    0xcaad(%rip),%rsi        # e018 <_IO_stdin_used+0x18>
    156b:	48 8d 3d af ca 00 00 	lea    0xcaaf(%rip),%rdi        # e021 <_IO_stdin_used+0x21>
    1572:	e8 e9 fc ff ff       	call   1260 <fopen@plt>
    1577:	48 89 85 d8 e9 ff ff 	mov    %rax,-0x1628(%rbp)
    157e:	48 8b 85 a8 e9 ff ff 	mov    -0x1658(%rbp),%rax
    1585:	8b 40 44             	mov    0x44(%rax),%eax
    1588:	48 98                	cltq
    158a:	48 8b 95 d0 e9 ff ff 	mov    -0x1630(%rbp),%rdx
    1591:	48 8b bd c0 e9 ff ff 	mov    -0x1640(%rbp),%rdi
    1598:	48 89 d1             	mov    %rdx,%rcx
    159b:	48 89 c2             	mov    %rax,%rdx
    159e:	be 01 00 00 00       	mov    $0x1,%esi
    15a3:	e8 d8 fc ff ff       	call   1280 <fwrite@plt>
    15a8:	48 8b 85 a8 e9 ff ff 	mov    -0x1658(%rbp),%rax
    15af:	8b 40 40             	mov    0x40(%rax),%eax
    15b2:	48 98                	cltq
    15b4:	48 8b 95 d8 e9 ff ff 	mov    -0x1628(%rbp),%rdx
    15bb:	48 8b bd c8 e9 ff ff 	mov    -0x1638(%rbp),%rdi
    15c2:	48 89 d1             	mov    %rdx,%rcx
    15c5:	48 89 c2             	mov    %rax,%rdx
    15c8:	be 01 00 00 00       	mov    $0x1,%esi
    15cd:	e8 ae fc ff ff       	call   1280 <fwrite@plt>
    15d2:	48 8b 85 d0 e9 ff ff 	mov    -0x1630(%rbp),%rax
    15d9:	48 89 c7             	mov    %rax,%rdi
    15dc:	e8 df fb ff ff       	call   11c0 <fclose@plt>
    15e1:	48 8b 85 d8 e9 ff ff 	mov    -0x1628(%rbp),%rax
    15e8:	48 89 c7             	mov    %rax,%rdi
    15eb:	e8 d0 fb ff ff       	call   11c0 <fclose@plt>
    15f0:	48 8d 3d 31 ca 00 00 	lea    0xca31(%rip),%rdi        # e028 <_IO_stdin_used+0x28>
    15f7:	e8 a4 fb ff ff       	call   11a0 <puts@plt>
    15fc:	8b 85 bc e9 ff ff    	mov    -0x1644(%rbp),%eax
    1602:	48 8b 4d f8          	mov    -0x8(%rbp),%rcx
    1606:	64 48 33 0c 25 28 00 	xor    %fs:0x28,%rcx
    160d:	00 00 
    160f:	74 05                	je     1616 <gen_key+0x233>
    1611:	e8 ba fb ff ff       	call   11d0 <__stack_chk_fail@plt>
    1616:	c9                   	leave
    1617:	c3                   	ret

0000000000001618 <get_signature>:
    1618:	f3 0f 1e fa          	endbr64
    161c:	55                   	push   %rbp
    161d:	48 89 e5             	mov    %rsp,%rbp
    1620:	48 81 ec 00 10 00 00 	sub    $0x1000,%rsp
    1627:	48 83 0c 24 00       	orq    $0x0,(%rsp)
    162c:	48 81 ec a0 0a 00 00 	sub    $0xaa0,%rsp
    1633:	48 89 bd 68 e5 ff ff 	mov    %rdi,-0x1a98(%rbp)
    163a:	64 48 8b 04 25 28 00 	mov    %fs:0x28,%rax
    1641:	00 00 
    1643:	48 89 45 f8          	mov    %rax,-0x8(%rbp)
    1647:	31 c0                	xor    %eax,%eax
    1649:	48 c7 85 40 ea ff ff 	movq   $0x0,-0x15c0(%rbp)
    1650:	00 00 00 00 
    1654:	48 c7 85 48 ea ff ff 	movq   $0x0,-0x15b8(%rbp)
    165b:	00 00 00 00 
    165f:	48 8d 85 50 ea ff ff 	lea    -0x15b0(%rbp),%rax
    1666:	ba a3 15 00 00       	mov    $0x15a3,%edx
    166b:	be 00 00 00 00       	mov    $0x0,%esi
    1670:	48 89 c7             	mov    %rax,%rdi
    1673:	e8 88 fb ff ff       	call   1200 <memset@plt>
    1678:	48 c7 85 f0 e5 ff ff 	movq   $0x0,-0x1a10(%rbp)
    167f:	00 00 00 00 
    1683:	48 c7 85 f8 e5 ff ff 	movq   $0x0,-0x1a08(%rbp)
    168a:	00 00 00 00 
    168e:	48 c7 85 00 e6 ff ff 	movq   $0x0,-0x1a00(%rbp)
    1695:	00 00 00 00 
    1699:	48 c7 85 08 e6 ff ff 	movq   $0x0,-0x19f8(%rbp)
    16a0:	00 00 00 00 
    16a4:	48 c7 85 10 e6 ff ff 	movq   $0x0,-0x19f0(%rbp)
    16ab:	00 00 00 00 
    16af:	c6 85 18 e6 ff ff 00 	movb   $0x0,-0x19e8(%rbp)
    16b6:	48 c7 85 50 e6 ff ff 	movq   $0x0,-0x19b0(%rbp)
    16bd:	00 00 00 00 
    16c1:	48 c7 85 58 e6 ff ff 	movq   $0x0,-0x19a8(%rbp)
    16c8:	00 00 00 00 
    16cc:	48 8d 85 60 e6 ff ff 	lea    -0x19a0(%rbp),%rax
    16d3:	ba d5 03 00 00       	mov    $0x3d5,%edx
    16d8:	be 00 00 00 00       	mov    $0x0,%esi
    16dd:	48 89 c7             	mov    %rax,%rdi
    16e0:	e8 1b fb ff ff       	call   1200 <memset@plt>
    16e5:	48 c7 85 c0 e5 ff ff 	movq   $0x0,-0x1a40(%rbp)
    16ec:	00 00 00 00 
    16f0:	48 c7 85 c8 e5 ff ff 	movq   $0x0,-0x1a38(%rbp)
    16f7:	00 00 00 00 
    16fb:	48 c7 85 d0 e5 ff ff 	movq   $0x0,-0x1a30(%rbp)
    1702:	00 00 00 00 
    1706:	48 c7 85 d8 e5 ff ff 	movq   $0x0,-0x1a28(%rbp)
    170d:	00 00 00 00 
    1711:	c6 85 e0 e5 ff ff 00 	movb   $0x0,-0x1a20(%rbp)
    1718:	48 8d 85 40 ea ff ff 	lea    -0x15c0(%rbp),%rax
    171f:	48 83 c8 01          	or     $0x1,%rax
    1723:	48 89 85 90 e5 ff ff 	mov    %rax,-0x1a70(%rbp)
    172a:	48 8d 85 f0 e5 ff ff 	lea    -0x1a10(%rbp),%rax
    1731:	48 83 c8 01          	or     $0x1,%rax
    1735:	48 89 85 98 e5 ff ff 	mov    %rax,-0x1a68(%rbp)
    173c:	48 8d 85 50 e6 ff ff 	lea    -0x19b0(%rbp),%rax
    1743:	48 83 c8 01          	or     $0x1,%rax
    1747:	48 89 85 a0 e5 ff ff 	mov    %rax,-0x1a60(%rbp)
    174e:	48 8d 85 c0 e5 ff ff 	lea    -0x1a40(%rbp),%rax
    1755:	48 83 c8 01          	or     $0x1,%rax
    1759:	48 89 85 a8 e5 ff ff 	mov    %rax,-0x1a58(%rbp)
    1760:	48 c7 85 20 e6 ff ff 	movq   $0x0,-0x19e0(%rbp)
    1767:	00 00 00 00 
    176b:	48 c7 85 28 e6 ff ff 	movq   $0x0,-0x19d8(%rbp)
    1772:	00 00 00 00 
    1776:	48 c7 85 30 e6 ff ff 	movq   $0x0,-0x19d0(%rbp)
    177d:	00 00 00 00 
    1781:	48 c7 85 38 e6 ff ff 	movq   $0x0,-0x19c8(%rbp)
    1788:	00 00 00 00 
    178c:	48 c7 85 40 e6 ff ff 	movq   $0x0,-0x19c0(%rbp)
    1793:	00 00 00 00 
    1797:	48 c7 85 48 e6 ff ff 	movq   $0x0,-0x19b8(%rbp)
    179e:	00 00 00 00 
    17a2:	48 8d 85 20 e6 ff ff 	lea    -0x19e0(%rbp),%rax
    17a9:	ba 00 01 00 00       	mov    $0x100,%edx
    17ae:	be 00 00 00 00       	mov    $0x0,%esi
    17b3:	48 89 c7             	mov    %rax,%rdi
    17b6:	e8 1b 71 00 00       	call   88d6 <randombytes_init>
    17bb:	48 c7 85 80 e5 ff ff 	movq   $0x20,-0x1a80(%rbp)
    17c2:	20 00 00 00 
    17c6:	48 8b 95 80 e5 ff ff 	mov    -0x1a80(%rbp),%rdx
    17cd:	48 8b 85 a8 e5 ff ff 	mov    -0x1a58(%rbp),%rax
    17d4:	48 89 d6             	mov    %rdx,%rsi
    17d7:	48 89 c7             	mov    %rax,%rdi
    17da:	e8 c8 70 00 00       	call   88a7 <randombytes>
    17df:	48 8d 35 51 c8 00 00 	lea    0xc851(%rip),%rsi        # e037 <_IO_stdin_used+0x37>
    17e6:	48 8d 3d 2d c8 00 00 	lea    0xc82d(%rip),%rdi        # e01a <_IO_stdin_used+0x1a>
    17ed:	e8 6e fa ff ff       	call   1260 <fopen@plt>
    17f2:	48 89 85 b0 e5 ff ff 	mov    %rax,-0x1a50(%rbp)
    17f9:	48 8d 35 37 c8 00 00 	lea    0xc837(%rip),%rsi        # e037 <_IO_stdin_used+0x37>
    1800:	48 8d 3d 1a c8 00 00 	lea    0xc81a(%rip),%rdi        # e021 <_IO_stdin_used+0x21>
    1807:	e8 54 fa ff ff       	call   1260 <fopen@plt>
    180c:	48 89 85 b8 e5 ff ff 	mov    %rax,-0x1a48(%rbp)
    1813:	c7 85 7c e5 ff ff 00 	movl   $0x0,-0x1a84(%rbp)
    181a:	00 00 00 
    181d:	48 83 bd b0 e5 ff ff 	cmpq   $0x0,-0x1a50(%rbp)
    1824:	00 
    1825:	74 0a                	je     1831 <get_signature+0x219>
    1827:	48 83 bd b8 e5 ff ff 	cmpq   $0x0,-0x1a48(%rbp)
    182e:	00 
    182f:	75 0f                	jne    1840 <get_signature+0x228>
    1831:	c7 85 7c e5 ff ff ff 	movl   $0xffffffff,-0x1a84(%rbp)
    1838:	ff ff ff 
    183b:	e9 8e 00 00 00       	jmp    18ce <get_signature+0x2b6>
    1840:	48 8b 85 68 e5 ff ff 	mov    -0x1a98(%rbp),%rax
    1847:	8b 40 44             	mov    0x44(%rax),%eax
    184a:	48 98                	cltq
    184c:	48 8b 95 b0 e5 ff ff 	mov    -0x1a50(%rbp),%rdx
    1853:	48 8b bd 90 e5 ff ff 	mov    -0x1a70(%rbp),%rdi
    185a:	48 89 d1             	mov    %rdx,%rcx
    185d:	48 89 c2             	mov    %rax,%rdx
    1860:	be 01 00 00 00       	mov    $0x1,%esi
    1865:	e8 46 f9 ff ff       	call   11b0 <fread@plt>
    186a:	48 8b 95 68 e5 ff ff 	mov    -0x1a98(%rbp),%rdx
    1871:	8b 52 44             	mov    0x44(%rdx),%edx
    1874:	48 63 d2             	movslq %edx,%rdx
    1877:	48 39 d0             	cmp    %rdx,%rax
    187a:	74 0c                	je     1888 <get_signature+0x270>
    187c:	c7 85 7c e5 ff ff ff 	movl   $0xffffffff,-0x1a84(%rbp)
    1883:	ff ff ff 
    1886:	eb 46                	jmp    18ce <get_signature+0x2b6>
    1888:	48 8b 85 68 e5 ff ff 	mov    -0x1a98(%rbp),%rax
    188f:	8b 40 40             	mov    0x40(%rax),%eax
    1892:	48 98                	cltq
    1894:	48 8b 95 b8 e5 ff ff 	mov    -0x1a48(%rbp),%rdx
    189b:	48 8b bd 98 e5 ff ff 	mov    -0x1a68(%rbp),%rdi
    18a2:	48 89 d1             	mov    %rdx,%rcx
    18a5:	48 89 c2             	mov    %rax,%rdx
    18a8:	be 01 00 00 00       	mov    $0x1,%esi
    18ad:	e8 fe f8 ff ff       	call   11b0 <fread@plt>
    18b2:	48 8b 95 68 e5 ff ff 	mov    -0x1a98(%rbp),%rdx
    18b9:	8b 52 40             	mov    0x40(%rdx),%edx
    18bc:	48 63 d2             	movslq %edx,%rdx
    18bf:	48 39 d0             	cmp    %rdx,%rax
    18c2:	74 0a                	je     18ce <get_signature+0x2b6>
    18c4:	c7 85 7c e5 ff ff ff 	movl   $0xffffffff,-0x1a84(%rbp)
    18cb:	ff ff ff 
    18ce:	48 83 bd b0 e5 ff ff 	cmpq   $0x0,-0x1a50(%rbp)
    18d5:	00 
    18d6:	74 0f                	je     18e7 <get_signature+0x2cf>
    18d8:	48 8b 85 b0 e5 ff ff 	mov    -0x1a50(%rbp),%rax
    18df:	48 89 c7             	mov    %rax,%rdi
    18e2:	e8 d9 f8 ff ff       	call   11c0 <fclose@plt>
    18e7:	48 83 bd b8 e5 ff ff 	cmpq   $0x0,-0x1a48(%rbp)
    18ee:	00 
    18ef:	74 0f                	je     1900 <get_signature+0x2e8>
    18f1:	48 8b 85 b8 e5 ff ff 	mov    -0x1a48(%rbp),%rax
    18f8:	48 89 c7             	mov    %rax,%rdi
    18fb:	e8 c0 f8 ff ff       	call   11c0 <fclose@plt>
    1900:	83 bd 7c e5 ff ff 00 	cmpl   $0x0,-0x1a84(%rbp)
    1907:	74 11                	je     191a <get_signature+0x302>
    1909:	48 8d 3d 29 c7 00 00 	lea    0xc729(%rip),%rdi        # e039 <_IO_stdin_used+0x39>
    1910:	e8 8b f8 ff ff       	call   11a0 <puts@plt>
    1915:	e9 3c 01 00 00       	jmp    1a56 <get_signature+0x43e>
    191a:	48 8b 85 68 e5 ff ff 	mov    -0x1a98(%rbp),%rax
    1921:	8b 40 48             	mov    0x48(%rax),%eax
    1924:	83 c0 20             	add    $0x20,%eax
    1927:	48 98                	cltq
    1929:	48 89 85 88 e5 ff ff 	mov    %rax,-0x1a78(%rbp)
    1930:	48 8b 8d 98 e5 ff ff 	mov    -0x1a68(%rbp),%rcx
    1937:	48 8b 95 a8 e5 ff ff 	mov    -0x1a58(%rbp),%rdx
    193e:	48 8d 85 88 e5 ff ff 	lea    -0x1a78(%rbp),%rax
    1945:	48 8b b5 a0 e5 ff ff 	mov    -0x1a60(%rbp),%rsi
    194c:	48 8b bd 68 e5 ff ff 	mov    -0x1a98(%rbp),%rdi
    1953:	49 89 c9             	mov    %rcx,%r9
    1956:	41 b8 20 00 00 00    	mov    $0x20,%r8d
    195c:	48 89 d1             	mov    %rdx,%rcx
    195f:	48 89 c2             	mov    %rax,%rdx
    1962:	e8 76 4f 00 00       	call   68dd <mayo_sign>
    1967:	89 85 7c e5 ff ff    	mov    %eax,-0x1a84(%rbp)
    196d:	83 bd 7c e5 ff ff 00 	cmpl   $0x0,-0x1a84(%rbp)
    1974:	74 1b                	je     1991 <get_signature+0x379>
    1976:	c7 85 7c e5 ff ff ff 	movl   $0xffffffff,-0x1a84(%rbp)
    197d:	ff ff ff 
    1980:	48 8d 3d c6 c6 00 00 	lea    0xc6c6(%rip),%rdi        # e04d <_IO_stdin_used+0x4d>
    1987:	e8 14 f8 ff ff       	call   11a0 <puts@plt>
    198c:	e9 c5 00 00 00       	jmp    1a56 <get_signature+0x43e>
    1991:	48 8d 3d c2 c6 00 00 	lea    0xc6c2(%rip),%rdi        # e05a <_IO_stdin_used+0x5a>
    1998:	b8 00 00 00 00       	mov    $0x0,%eax
    199d:	e8 3e f8 ff ff       	call   11e0 <printf@plt>
    19a2:	48 8b 85 68 e5 ff ff 	mov    -0x1a98(%rbp),%rax
    19a9:	8b 50 44             	mov    0x44(%rax),%edx
    19ac:	48 8b 85 90 e5 ff ff 	mov    -0x1a70(%rbp),%rax
    19b3:	89 d6                	mov    %edx,%esi
    19b5:	48 89 c7             	mov    %rax,%rdi
    19b8:	e8 cc f9 ff ff       	call   1389 <print_hex>
    19bd:	48 8d 3d 9b c6 00 00 	lea    0xc69b(%rip),%rdi        # e05f <_IO_stdin_used+0x5f>
    19c4:	b8 00 00 00 00       	mov    $0x0,%eax
    19c9:	e8 12 f8 ff ff       	call   11e0 <printf@plt>
    19ce:	48 8b 85 88 e5 ff ff 	mov    -0x1a78(%rbp),%rax
    19d5:	89 c2                	mov    %eax,%edx
    19d7:	48 8b 85 a0 e5 ff ff 	mov    -0x1a60(%rbp),%rax
    19de:	89 d6                	mov    %edx,%esi
    19e0:	48 89 c7             	mov    %rax,%rdi
    19e3:	e8 a1 f9 ff ff       	call   1389 <print_hex>
    19e8:	48 8b 8d 88 e5 ff ff 	mov    -0x1a78(%rbp),%rcx
    19ef:	4c 8b 85 90 e5 ff ff 	mov    -0x1a70(%rbp),%r8
    19f6:	48 8b 95 a0 e5 ff ff 	mov    -0x1a60(%rbp),%rdx
    19fd:	48 8d 85 80 e5 ff ff 	lea    -0x1a80(%rbp),%rax
    1a04:	48 8b b5 a8 e5 ff ff 	mov    -0x1a58(%rbp),%rsi
    1a0b:	48 8b bd 68 e5 ff ff 	mov    -0x1a98(%rbp),%rdi
    1a12:	4d 89 c1             	mov    %r8,%r9
    1a15:	49 89 c8             	mov    %rcx,%r8
    1a18:	48 89 d1             	mov    %rdx,%rcx
    1a1b:	48 89 c2             	mov    %rax,%rdx
    1a1e:	e8 ae 4f 00 00       	call   69d1 <mayo_open>
    1a23:	89 85 7c e5 ff ff    	mov    %eax,-0x1a84(%rbp)
    1a29:	83 bd 7c e5 ff ff 00 	cmpl   $0x0,-0x1a84(%rbp)
    1a30:	74 18                	je     1a4a <get_signature+0x432>
    1a32:	c7 85 7c e5 ff ff ff 	movl   $0xffffffff,-0x1a84(%rbp)
    1a39:	ff ff ff 
    1a3c:	48 8d 3d 21 c6 00 00 	lea    0xc621(%rip),%rdi        # e064 <_IO_stdin_used+0x64>
    1a43:	e8 58 f7 ff ff       	call   11a0 <puts@plt>
    1a48:	eb 0c                	jmp    1a56 <get_signature+0x43e>
    1a4a:	48 8d 3d 22 c6 00 00 	lea    0xc622(%rip),%rdi        # e073 <_IO_stdin_used+0x73>
    1a51:	e8 4a f7 ff ff       	call   11a0 <puts@plt>
    1a56:	8b 85 7c e5 ff ff    	mov    -0x1a84(%rbp),%eax
    1a5c:	48 8b 4d f8          	mov    -0x8(%rbp),%rcx
    1a60:	64 48 33 0c 25 28 00 	xor    %fs:0x28,%rcx
    1a67:	00 00 
    1a69:	74 05                	je     1a70 <get_signature+0x458>
    1a6b:	e8 60 f7 ff ff       	call   11d0 <__stack_chk_fail@plt>
    1a70:	c9                   	leave
    1a71:	c3                   	ret

0000000000001a72 <main>:
    1a72:	f3 0f 1e fa          	endbr64
    1a76:	55                   	push   %rbp
    1a77:	48 89 e5             	mov    %rsp,%rbp
    1a7a:	48 83 ec 20          	sub    $0x20,%rsp
    1a7e:	89 7d ec             	mov    %edi,-0x14(%rbp)
    1a81:	48 89 75 e0          	mov    %rsi,-0x20(%rbp)
    1a85:	c7 45 f4 00 00 00 00 	movl   $0x0,-0xc(%rbp)
    1a8c:	48 8b 45 e0          	mov    -0x20(%rbp),%rax
    1a90:	48 83 c0 08          	add    $0x8,%rax
    1a94:	48 8b 00             	mov    (%rax),%rax
    1a97:	48 8d 35 e5 c5 00 00 	lea    0xc5e5(%rip),%rsi        # e083 <_IO_stdin_used+0x83>
    1a9e:	48 89 c7             	mov    %rax,%rdi
    1aa1:	e8 7a f7 ff ff       	call   1220 <strcmp@plt>
    1aa6:	85 c0                	test   %eax,%eax
    1aa8:	75 10                	jne    1aba <main+0x48>
    1aaa:	48 8d 05 8f 00 01 00 	lea    0x1008f(%rip),%rax        # 11b40 <MAYO_1>
    1ab1:	48 89 45 f8          	mov    %rax,-0x8(%rbp)
    1ab5:	e9 94 00 00 00       	jmp    1b4e <main+0xdc>
    1aba:	48 8b 45 e0          	mov    -0x20(%rbp),%rax
    1abe:	48 83 c0 08          	add    $0x8,%rax
    1ac2:	48 8b 00             	mov    (%rax),%rax
    1ac5:	48 8d 35 be c5 00 00 	lea    0xc5be(%rip),%rsi        # e08a <_IO_stdin_used+0x8a>
    1acc:	48 89 c7             	mov    %rax,%rdi
    1acf:	e8 4c f7 ff ff       	call   1220 <strcmp@plt>
    1ad4:	85 c0                	test   %eax,%eax
    1ad6:	75 0d                	jne    1ae5 <main+0x73>
    1ad8:	48 8d 05 e1 00 01 00 	lea    0x100e1(%rip),%rax        # 11bc0 <MAYO_2>
    1adf:	48 89 45 f8          	mov    %rax,-0x8(%rbp)
    1ae3:	eb 69                	jmp    1b4e <main+0xdc>
    1ae5:	48 8b 45 e0          	mov    -0x20(%rbp),%rax
    1ae9:	48 83 c0 08          	add    $0x8,%rax
    1aed:	48 8b 00             	mov    (%rax),%rax
    1af0:	48 8d 35 9a c5 00 00 	lea    0xc59a(%rip),%rsi        # e091 <_IO_stdin_used+0x91>
    1af7:	48 89 c7             	mov    %rax,%rdi
    1afa:	e8 21 f7 ff ff       	call   1220 <strcmp@plt>
    1aff:	85 c0                	test   %eax,%eax
    1b01:	75 0d                	jne    1b10 <main+0x9e>
    1b03:	48 8d 05 36 01 01 00 	lea    0x10136(%rip),%rax        # 11c40 <MAYO_3>
    1b0a:	48 89 45 f8          	mov    %rax,-0x8(%rbp)
    1b0e:	eb 3e                	jmp    1b4e <main+0xdc>
    1b10:	48 8b 45 e0          	mov    -0x20(%rbp),%rax
    1b14:	48 83 c0 08          	add    $0x8,%rax
    1b18:	48 8b 00             	mov    (%rax),%rax
    1b1b:	48 8d 35 76 c5 00 00 	lea    0xc576(%rip),%rsi        # e098 <_IO_stdin_used+0x98>
    1b22:	48 89 c7             	mov    %rax,%rdi
    1b25:	e8 f6 f6 ff ff       	call   1220 <strcmp@plt>
    1b2a:	85 c0                	test   %eax,%eax
    1b2c:	75 0d                	jne    1b3b <main+0xc9>
    1b2e:	48 8d 05 8b 01 01 00 	lea    0x1018b(%rip),%rax        # 11cc0 <MAYO_5>
    1b35:	48 89 45 f8          	mov    %rax,-0x8(%rbp)
    1b39:	eb 13                	jmp    1b4e <main+0xdc>
    1b3b:	48 8d 3d 5d c5 00 00 	lea    0xc55d(%rip),%rdi        # e09f <_IO_stdin_used+0x9f>
    1b42:	e8 59 f6 ff ff       	call   11a0 <puts@plt>
    1b47:	b8 01 00 00 00       	mov    $0x1,%eax
    1b4c:	eb 47                	jmp    1b95 <main+0x123>
    1b4e:	83 7d ec 02          	cmpl   $0x2,-0x14(%rbp)
    1b52:	7e 2f                	jle    1b83 <main+0x111>
    1b54:	48 8b 45 e0          	mov    -0x20(%rbp),%rax
    1b58:	48 83 c0 10          	add    $0x10,%rax
    1b5c:	48 8b 00             	mov    (%rax),%rax
    1b5f:	48 8d 35 4f c5 00 00 	lea    0xc54f(%rip),%rsi        # e0b5 <_IO_stdin_used+0xb5>
    1b66:	48 89 c7             	mov    %rax,%rdi
    1b69:	e8 b2 f6 ff ff       	call   1220 <strcmp@plt>
    1b6e:	85 c0                	test   %eax,%eax
    1b70:	75 11                	jne    1b83 <main+0x111>
    1b72:	48 8b 45 f8          	mov    -0x8(%rbp),%rax
    1b76:	48 89 c7             	mov    %rax,%rdi
    1b79:	e8 65 f8 ff ff       	call   13e3 <gen_key>
    1b7e:	89 45 f4             	mov    %eax,-0xc(%rbp)
    1b81:	eb 0f                	jmp    1b92 <main+0x120>
    1b83:	48 8b 45 f8          	mov    -0x8(%rbp),%rax
    1b87:	48 89 c7             	mov    %rax,%rdi
    1b8a:	e8 89 fa ff ff       	call   1618 <get_signature>
    1b8f:	89 45 f4             	mov    %eax,-0xc(%rbp)
    1b92:	8b 45 f4             	mov    -0xc(%rbp),%eax
    1b95:	c9                   	leave
    1b96:	c3                   	ret

0000000000001b97 <mul_f>:
    1b97:	55                   	push   %rbp
    1b98:	48 89 e5             	mov    %rsp,%rbp
    1b9b:	89 fa                	mov    %edi,%edx
    1b9d:	89 f0                	mov    %esi,%eax
    1b9f:	88 55 ec             	mov    %dl,-0x14(%rbp)
    1ba2:	88 45 e8             	mov    %al,-0x18(%rbp)
    1ba5:	0f b6 45 ec          	movzbl -0x14(%rbp),%eax
    1ba9:	83 e0 01             	and    $0x1,%eax
    1bac:	89 c2                	mov    %eax,%edx
    1bae:	0f b6 45 e8          	movzbl -0x18(%rbp),%eax
    1bb2:	0f af c2             	imul   %edx,%eax
    1bb5:	88 45 fd             	mov    %al,-0x3(%rbp)
    1bb8:	0f b6 45 ec          	movzbl -0x14(%rbp),%eax
    1bbc:	83 e0 02             	and    $0x2,%eax
    1bbf:	f6 65 e8             	mulb   -0x18(%rbp)
    1bc2:	89 c2                	mov    %eax,%edx
    1bc4:	0f b6 45 fd          	movzbl -0x3(%rbp),%eax
    1bc8:	31 d0                	xor    %edx,%eax
    1bca:	88 45 fd             	mov    %al,-0x3(%rbp)
    1bcd:	0f b6 45 ec          	movzbl -0x14(%rbp),%eax
    1bd1:	83 e0 04             	and    $0x4,%eax
    1bd4:	f6 65 e8             	mulb   -0x18(%rbp)
    1bd7:	89 c2                	mov    %eax,%edx
    1bd9:	0f b6 45 fd          	movzbl -0x3(%rbp),%eax
    1bdd:	31 d0                	xor    %edx,%eax
    1bdf:	88 45 fd             	mov    %al,-0x3(%rbp)
    1be2:	0f b6 45 ec          	movzbl -0x14(%rbp),%eax
    1be6:	83 e0 08             	and    $0x8,%eax
    1be9:	f6 65 e8             	mulb   -0x18(%rbp)
    1bec:	89 c2                	mov    %eax,%edx
    1bee:	0f b6 45 fd          	movzbl -0x3(%rbp),%eax
    1bf2:	31 d0                	xor    %edx,%eax
    1bf4:	88 45 fd             	mov    %al,-0x3(%rbp)
    1bf7:	0f b6 45 fd          	movzbl -0x3(%rbp),%eax
    1bfb:	83 e0 f0             	and    $0xfffffff0,%eax
    1bfe:	88 45 fe             	mov    %al,-0x2(%rbp)
    1c01:	0f b6 45 fe          	movzbl -0x2(%rbp),%eax
    1c05:	c0 e8 04             	shr    $0x4,%al
    1c08:	32 45 fd             	xor    -0x3(%rbp),%al
    1c0b:	89 c2                	mov    %eax,%edx
    1c0d:	0f b6 45 fe          	movzbl -0x2(%rbp),%eax
    1c11:	c0 e8 03             	shr    $0x3,%al
    1c14:	31 d0                	xor    %edx,%eax
    1c16:	83 e0 0f             	and    $0xf,%eax
    1c19:	88 45 ff             	mov    %al,-0x1(%rbp)
    1c1c:	0f b6 45 ff          	movzbl -0x1(%rbp),%eax
    1c20:	5d                   	pop    %rbp
    1c21:	c3                   	ret

0000000000001c22 <add_f>:
    1c22:	55                   	push   %rbp
    1c23:	48 89 e5             	mov    %rsp,%rbp
    1c26:	89 fa                	mov    %edi,%edx
    1c28:	89 f0                	mov    %esi,%eax
    1c2a:	88 55 fc             	mov    %dl,-0x4(%rbp)
    1c2d:	88 45 f8             	mov    %al,-0x8(%rbp)
    1c30:	0f b6 45 fc          	movzbl -0x4(%rbp),%eax
    1c34:	32 45 f8             	xor    -0x8(%rbp),%al
    1c37:	5d                   	pop    %rbp
    1c38:	c3                   	ret

0000000000001c39 <lincomb>:
    1c39:	55                   	push   %rbp
    1c3a:	48 89 e5             	mov    %rsp,%rbp
    1c3d:	53                   	push   %rbx
    1c3e:	48 83 ec 28          	sub    $0x28,%rsp
    1c42:	48 89 7d e0          	mov    %rdi,-0x20(%rbp)
    1c46:	48 89 75 d8          	mov    %rsi,-0x28(%rbp)
    1c4a:	89 55 d4             	mov    %edx,-0x2c(%rbp)
    1c4d:	89 4d d0             	mov    %ecx,-0x30(%rbp)
    1c50:	c6 45 f3 00          	movb   $0x0,-0xd(%rbp)
    1c54:	c7 45 f4 00 00 00 00 	movl   $0x0,-0xc(%rbp)
    1c5b:	eb 45                	jmp    1ca2 <lincomb+0x69>
    1c5d:	0f b6 5d f3          	movzbl -0xd(%rbp),%ebx
    1c61:	48 8b 45 d8          	mov    -0x28(%rbp),%rax
    1c65:	0f b6 00             	movzbl (%rax),%eax
    1c68:	0f b6 d0             	movzbl %al,%edx
    1c6b:	8b 45 f4             	mov    -0xc(%rbp),%eax
    1c6e:	48 98                	cltq
    1c70:	48 8b 4d e0          	mov    -0x20(%rbp),%rcx
    1c74:	48 01 c8             	add    %rcx,%rax
    1c77:	0f b6 00             	movzbl (%rax),%eax
    1c7a:	0f b6 c0             	movzbl %al,%eax
    1c7d:	89 d6                	mov    %edx,%esi
    1c7f:	89 c7                	mov    %eax,%edi
    1c81:	e8 11 ff ff ff       	call   1b97 <mul_f>
    1c86:	0f b6 c0             	movzbl %al,%eax
    1c89:	89 de                	mov    %ebx,%esi
    1c8b:	89 c7                	mov    %eax,%edi
    1c8d:	e8 90 ff ff ff       	call   1c22 <add_f>
    1c92:	88 45 f3             	mov    %al,-0xd(%rbp)
    1c95:	83 45 f4 01          	addl   $0x1,-0xc(%rbp)
    1c99:	8b 45 d0             	mov    -0x30(%rbp),%eax
    1c9c:	48 98                	cltq
    1c9e:	48 01 45 d8          	add    %rax,-0x28(%rbp)
    1ca2:	8b 45 f4             	mov    -0xc(%rbp),%eax
    1ca5:	3b 45 d4             	cmp    -0x2c(%rbp),%eax
    1ca8:	7c b3                	jl     1c5d <lincomb+0x24>
    1caa:	0f b6 45 f3          	movzbl -0xd(%rbp),%eax
    1cae:	48 83 c4 28          	add    $0x28,%rsp
    1cb2:	5b                   	pop    %rbx
    1cb3:	5d                   	pop    %rbp
    1cb4:	c3                   	ret

0000000000001cb5 <mat_mul>:
    1cb5:	55                   	push   %rbp
    1cb6:	48 89 e5             	mov    %rsp,%rbp
    1cb9:	48 83 ec 38          	sub    $0x38,%rsp
    1cbd:	48 89 7d e8          	mov    %rdi,-0x18(%rbp)
    1cc1:	48 89 75 e0          	mov    %rsi,-0x20(%rbp)
    1cc5:	48 89 55 d8          	mov    %rdx,-0x28(%rbp)
    1cc9:	89 4d d4             	mov    %ecx,-0x2c(%rbp)
    1ccc:	44 89 45 d0          	mov    %r8d,-0x30(%rbp)
    1cd0:	44 89 4d cc          	mov    %r9d,-0x34(%rbp)
    1cd4:	c7 45 f8 00 00 00 00 	movl   $0x0,-0x8(%rbp)
    1cdb:	eb 4c                	jmp    1d29 <mat_mul+0x74>
    1cdd:	c7 45 fc 00 00 00 00 	movl   $0x0,-0x4(%rbp)
    1ce4:	eb 2e                	jmp    1d14 <mat_mul+0x5f>
    1ce6:	8b 45 fc             	mov    -0x4(%rbp),%eax
    1ce9:	48 98                	cltq
    1ceb:	48 8b 55 e0          	mov    -0x20(%rbp),%rdx
    1cef:	48 8d 34 10          	lea    (%rax,%rdx,1),%rsi
    1cf3:	8b 4d cc             	mov    -0x34(%rbp),%ecx
    1cf6:	8b 55 d4             	mov    -0x2c(%rbp),%edx
    1cf9:	48 8b 45 e8          	mov    -0x18(%rbp),%rax
    1cfd:	48 89 c7             	mov    %rax,%rdi
    1d00:	e8 34 ff ff ff       	call   1c39 <lincomb>
    1d05:	48 8b 55 d8          	mov    -0x28(%rbp),%rdx
    1d09:	88 02                	mov    %al,(%rdx)
    1d0b:	83 45 fc 01          	addl   $0x1,-0x4(%rbp)
    1d0f:	48 83 45 d8 01       	addq   $0x1,-0x28(%rbp)
    1d14:	8b 45 fc             	mov    -0x4(%rbp),%eax
    1d17:	3b 45 cc             	cmp    -0x34(%rbp),%eax
    1d1a:	7c ca                	jl     1ce6 <mat_mul+0x31>
    1d1c:	83 45 f8 01          	addl   $0x1,-0x8(%rbp)
    1d20:	8b 45 d4             	mov    -0x2c(%rbp),%eax
    1d23:	48 98                	cltq
    1d25:	48 01 45 e8          	add    %rax,-0x18(%rbp)
    1d29:	8b 45 f8             	mov    -0x8(%rbp),%eax
    1d2c:	3b 45 d0             	cmp    -0x30(%rbp),%eax
    1d2f:	7c ac                	jl     1cdd <mat_mul+0x28>
    1d31:	90                   	nop
    1d32:	90                   	nop
    1d33:	c9                   	leave
    1d34:	c3                   	ret

0000000000001d35 <gf16v_mul_u64>:
    1d35:	55                   	push   %rbp
    1d36:	48 89 e5             	mov    %rsp,%rbp
    1d39:	48 89 7d c8          	mov    %rdi,-0x38(%rbp)
    1d3d:	89 f0                	mov    %esi,%eax
    1d3f:	88 45 c4             	mov    %al,-0x3c(%rbp)
    1d42:	48 b8 88 88 88 88 88 	movabs $0x8888888888888888,%rax
    1d49:	88 88 88 
    1d4c:	48 89 45 d8          	mov    %rax,-0x28(%rbp)
    1d50:	48 8b 45 c8          	mov    -0x38(%rbp),%rax
    1d54:	48 89 45 e0          	mov    %rax,-0x20(%rbp)
    1d58:	0f b6 45 c4          	movzbl -0x3c(%rbp),%eax
    1d5c:	48 89 45 e8          	mov    %rax,-0x18(%rbp)
    1d60:	48 8b 45 e8          	mov    -0x18(%rbp),%rax
    1d64:	83 e0 01             	and    $0x1,%eax
    1d67:	48 8b 55 e0          	mov    -0x20(%rbp),%rdx
    1d6b:	48 0f af c2          	imul   %rdx,%rax
    1d6f:	48 89 45 f0          	mov    %rax,-0x10(%rbp)
    1d73:	48 8b 45 e0          	mov    -0x20(%rbp),%rax
    1d77:	48 23 45 d8          	and    -0x28(%rbp),%rax
    1d7b:	48 89 45 f8          	mov    %rax,-0x8(%rbp)
    1d7f:	48 8b 45 f8          	mov    -0x8(%rbp),%rax
    1d83:	48 31 45 e0          	xor    %rax,-0x20(%rbp)
    1d87:	48 8b 45 e0          	mov    -0x20(%rbp),%rax
    1d8b:	48 8d 0c 00          	lea    (%rax,%rax,1),%rcx
    1d8f:	48 8b 45 f8          	mov    -0x8(%rbp),%rax
    1d93:	48 c1 e8 03          	shr    $0x3,%rax
    1d97:	48 89 c2             	mov    %rax,%rdx
    1d9a:	48 89 d0             	mov    %rdx,%rax
    1d9d:	48 01 c0             	add    %rax,%rax
    1da0:	48 01 d0             	add    %rdx,%rax
    1da3:	48 31 c8             	xor    %rcx,%rax
    1da6:	48 89 45 e0          	mov    %rax,-0x20(%rbp)
    1daa:	48 8b 45 e8          	mov    -0x18(%rbp),%rax
    1dae:	48 d1 e8             	shr    $1,%rax
    1db1:	83 e0 01             	and    $0x1,%eax
    1db4:	48 0f af 45 e0       	imul   -0x20(%rbp),%rax
    1db9:	48 31 45 f0          	xor    %rax,-0x10(%rbp)
    1dbd:	48 8b 45 e0          	mov    -0x20(%rbp),%rax
    1dc1:	48 23 45 d8          	and    -0x28(%rbp),%rax
    1dc5:	48 89 45 f8          	mov    %rax,-0x8(%rbp)
    1dc9:	48 8b 45 f8          	mov    -0x8(%rbp),%rax
    1dcd:	48 31 45 e0          	xor    %rax,-0x20(%rbp)
    1dd1:	48 8b 45 e0          	mov    -0x20(%rbp),%rax
    1dd5:	48 8d 0c 00          	lea    (%rax,%rax,1),%rcx
    1dd9:	48 8b 45 f8          	mov    -0x8(%rbp),%rax
    1ddd:	48 c1 e8 03          	shr    $0x3,%rax
    1de1:	48 89 c2             	mov    %rax,%rdx
    1de4:	48 89 d0             	mov    %rdx,%rax
    1de7:	48 01 c0             	add    %rax,%rax
    1dea:	48 01 d0             	add    %rdx,%rax
    1ded:	48 31 c8             	xor    %rcx,%rax
    1df0:	48 89 45 e0          	mov    %rax,-0x20(%rbp)
    1df4:	48 8b 45 e8          	mov    -0x18(%rbp),%rax
    1df8:	48 c1 e8 02          	shr    $0x2,%rax
    1dfc:	83 e0 01             	and    $0x1,%eax
    1dff:	48 0f af 45 e0       	imul   -0x20(%rbp),%rax
    1e04:	48 31 45 f0          	xor    %rax,-0x10(%rbp)
    1e08:	48 8b 45 e0          	mov    -0x20(%rbp),%rax
    1e0c:	48 23 45 d8          	and    -0x28(%rbp),%rax
    1e10:	48 89 45 f8          	mov    %rax,-0x8(%rbp)
    1e14:	48 8b 45 f8          	mov    -0x8(%rbp),%rax
    1e18:	48 31 45 e0          	xor    %rax,-0x20(%rbp)
    1e1c:	48 8b 45 e0          	mov    -0x20(%rbp),%rax
    1e20:	48 8d 0c 00          	lea    (%rax,%rax,1),%rcx
    1e24:	48 8b 45 f8          	mov    -0x8(%rbp),%rax
    1e28:	48 c1 e8 03          	shr    $0x3,%rax
    1e2c:	48 89 c2             	mov    %rax,%rdx
    1e2f:	48 89 d0             	mov    %rdx,%rax
    1e32:	48 01 c0             	add    %rax,%rax
    1e35:	48 01 d0             	add    %rdx,%rax
    1e38:	48 31 c8             	xor    %rcx,%rax
    1e3b:	48 89 45 e0          	mov    %rax,-0x20(%rbp)
    1e3f:	48 8b 45 e8          	mov    -0x18(%rbp),%rax
    1e43:	48 c1 e8 03          	shr    $0x3,%rax
    1e47:	83 e0 01             	and    $0x1,%eax
    1e4a:	48 0f af 45 e0       	imul   -0x20(%rbp),%rax
    1e4f:	48 31 45 f0          	xor    %rax,-0x10(%rbp)
    1e53:	48 8b 45 f0          	mov    -0x10(%rbp),%rax
    1e57:	5d                   	pop    %rbp
    1e58:	c3                   	ret

0000000000001e59 <m_vec_copy>:
    1e59:	55                   	push   %rbp
    1e5a:	48 89 e5             	mov    %rsp,%rbp
    1e5d:	89 7d ec             	mov    %edi,-0x14(%rbp)
    1e60:	48 89 75 e0          	mov    %rsi,-0x20(%rbp)
    1e64:	48 89 55 d8          	mov    %rdx,-0x28(%rbp)
    1e68:	c7 45 fc 00 00 00 00 	movl   $0x0,-0x4(%rbp)
    1e6f:	eb 32                	jmp    1ea3 <m_vec_copy+0x4a>
    1e71:	8b 45 fc             	mov    -0x4(%rbp),%eax
    1e74:	48 98                	cltq
    1e76:	48 8d 14 c5 00 00 00 	lea    0x0(,%rax,8),%rdx
    1e7d:	00 
    1e7e:	48 8b 45 e0          	mov    -0x20(%rbp),%rax
    1e82:	48 01 c2             	add    %rax,%rdx
    1e85:	8b 45 fc             	mov    -0x4(%rbp),%eax
    1e88:	48 98                	cltq
    1e8a:	48 8d 0c c5 00 00 00 	lea    0x0(,%rax,8),%rcx
    1e91:	00 
    1e92:	48 8b 45 d8          	mov    -0x28(%rbp),%rax
    1e96:	48 01 c8             	add    %rcx,%rax
    1e99:	48 8b 12             	mov    (%rdx),%rdx
    1e9c:	48 89 10             	mov    %rdx,(%rax)
    1e9f:	83 45 fc 01          	addl   $0x1,-0x4(%rbp)
    1ea3:	8b 45 fc             	mov    -0x4(%rbp),%eax
    1ea6:	3b 45 ec             	cmp    -0x14(%rbp),%eax
    1ea9:	7c c6                	jl     1e71 <m_vec_copy+0x18>
    1eab:	90                   	nop
    1eac:	90                   	nop
    1ead:	5d                   	pop    %rbp
    1eae:	c3                   	ret

0000000000001eaf <m_vec_add>:
    1eaf:	55                   	push   %rbp
    1eb0:	48 89 e5             	mov    %rsp,%rbp
    1eb3:	89 7d ec             	mov    %edi,-0x14(%rbp)
    1eb6:	48 89 75 e0          	mov    %rsi,-0x20(%rbp)
    1eba:	48 89 55 d8          	mov    %rdx,-0x28(%rbp)
    1ebe:	c7 45 fc 00 00 00 00 	movl   $0x0,-0x4(%rbp)
    1ec5:	eb 4c                	jmp    1f13 <m_vec_add+0x64>
    1ec7:	8b 45 fc             	mov    -0x4(%rbp),%eax
    1eca:	48 98                	cltq
    1ecc:	48 8d 14 c5 00 00 00 	lea    0x0(,%rax,8),%rdx
    1ed3:	00 
    1ed4:	48 8b 45 d8          	mov    -0x28(%rbp),%rax
    1ed8:	48 01 d0             	add    %rdx,%rax
    1edb:	48 8b 08             	mov    (%rax),%rcx
    1ede:	8b 45 fc             	mov    -0x4(%rbp),%eax
    1ee1:	48 98                	cltq
    1ee3:	48 8d 14 c5 00 00 00 	lea    0x0(,%rax,8),%rdx
    1eea:	00 
    1eeb:	48 8b 45 e0          	mov    -0x20(%rbp),%rax
    1eef:	48 01 d0             	add    %rdx,%rax
    1ef2:	48 8b 10             	mov    (%rax),%rdx
    1ef5:	8b 45 fc             	mov    -0x4(%rbp),%eax
    1ef8:	48 98                	cltq
    1efa:	48 8d 34 c5 00 00 00 	lea    0x0(,%rax,8),%rsi
    1f01:	00 
    1f02:	48 8b 45 d8          	mov    -0x28(%rbp),%rax
    1f06:	48 01 f0             	add    %rsi,%rax
    1f09:	48 31 ca             	xor    %rcx,%rdx
    1f0c:	48 89 10             	mov    %rdx,(%rax)
    1f0f:	83 45 fc 01          	addl   $0x1,-0x4(%rbp)
    1f13:	8b 45 fc             	mov    -0x4(%rbp),%eax
    1f16:	3b 45 ec             	cmp    -0x14(%rbp),%eax
    1f19:	7c ac                	jl     1ec7 <m_vec_add+0x18>
    1f1b:	90                   	nop
    1f1c:	90                   	nop
    1f1d:	5d                   	pop    %rbp
    1f1e:	c3                   	ret

0000000000001f1f <m_vec_mul_add>:
    1f1f:	55                   	push   %rbp
    1f20:	48 89 e5             	mov    %rsp,%rbp
    1f23:	48 83 ec 28          	sub    $0x28,%rsp
    1f27:	89 7d ec             	mov    %edi,-0x14(%rbp)
    1f2a:	48 89 75 e0          	mov    %rsi,-0x20(%rbp)
    1f2e:	89 d0                	mov    %edx,%eax
    1f30:	48 89 4d d8          	mov    %rcx,-0x28(%rbp)
    1f34:	88 45 e8             	mov    %al,-0x18(%rbp)
    1f37:	c7 45 fc 00 00 00 00 	movl   $0x0,-0x4(%rbp)
    1f3e:	eb 5d                	jmp    1f9d <m_vec_mul_add+0x7e>
    1f40:	0f b6 45 e8          	movzbl -0x18(%rbp),%eax
    1f44:	8b 55 fc             	mov    -0x4(%rbp),%edx
    1f47:	48 63 d2             	movslq %edx,%rdx
    1f4a:	48 8d 0c d5 00 00 00 	lea    0x0(,%rdx,8),%rcx
    1f51:	00 
    1f52:	48 8b 55 e0          	mov    -0x20(%rbp),%rdx
    1f56:	48 01 ca             	add    %rcx,%rdx
    1f59:	48 8b 12             	mov    (%rdx),%rdx
    1f5c:	89 c6                	mov    %eax,%esi
    1f5e:	48 89 d7             	mov    %rdx,%rdi
    1f61:	e8 cf fd ff ff       	call   1d35 <gf16v_mul_u64>
    1f66:	8b 55 fc             	mov    -0x4(%rbp),%edx
    1f69:	48 63 d2             	movslq %edx,%rdx
    1f6c:	48 8d 0c d5 00 00 00 	lea    0x0(,%rdx,8),%rcx
    1f73:	00 
    1f74:	48 8b 55 d8          	mov    -0x28(%rbp),%rdx
    1f78:	48 01 ca             	add    %rcx,%rdx
    1f7b:	48 8b 0a             	mov    (%rdx),%rcx
    1f7e:	8b 55 fc             	mov    -0x4(%rbp),%edx
    1f81:	48 63 d2             	movslq %edx,%rdx
    1f84:	48 8d 34 d5 00 00 00 	lea    0x0(,%rdx,8),%rsi
    1f8b:	00 
    1f8c:	48 8b 55 d8          	mov    -0x28(%rbp),%rdx
    1f90:	48 01 f2             	add    %rsi,%rdx
    1f93:	48 31 c8             	xor    %rcx,%rax
    1f96:	48 89 02             	mov    %rax,(%rdx)
    1f99:	83 45 fc 01          	addl   $0x1,-0x4(%rbp)
    1f9d:	8b 45 fc             	mov    -0x4(%rbp),%eax
    1fa0:	3b 45 ec             	cmp    -0x14(%rbp),%eax
    1fa3:	7c 9b                	jl     1f40 <m_vec_mul_add+0x21>
    1fa5:	90                   	nop
    1fa6:	90                   	nop
    1fa7:	c9                   	leave
    1fa8:	c3                   	ret

0000000000001fa9 <m_vec_mul_add_x>:
    1fa9:	55                   	push   %rbp
    1faa:	48 89 e5             	mov    %rsp,%rbp
    1fad:	89 7d dc             	mov    %edi,-0x24(%rbp)
    1fb0:	48 89 75 d0          	mov    %rsi,-0x30(%rbp)
    1fb4:	48 89 55 c8          	mov    %rdx,-0x38(%rbp)
    1fb8:	48 b8 88 88 88 88 88 	movabs $0x8888888888888888,%rax
    1fbf:	88 88 88 
    1fc2:	48 89 45 f0          	mov    %rax,-0x10(%rbp)
    1fc6:	c7 45 ec 00 00 00 00 	movl   $0x0,-0x14(%rbp)
    1fcd:	e9 8d 00 00 00       	jmp    205f <m_vec_mul_add_x+0xb6>
    1fd2:	8b 45 ec             	mov    -0x14(%rbp),%eax
    1fd5:	48 98                	cltq
    1fd7:	48 8d 14 c5 00 00 00 	lea    0x0(,%rax,8),%rdx
    1fde:	00 
    1fdf:	48 8b 45 d0          	mov    -0x30(%rbp),%rax
    1fe3:	48 01 d0             	add    %rdx,%rax
    1fe6:	48 8b 00             	mov    (%rax),%rax
    1fe9:	48 23 45 f0          	and    -0x10(%rbp),%rax
    1fed:	48 89 45 f8          	mov    %rax,-0x8(%rbp)
    1ff1:	8b 45 ec             	mov    -0x14(%rbp),%eax
    1ff4:	48 98                	cltq
    1ff6:	48 8d 14 c5 00 00 00 	lea    0x0(,%rax,8),%rdx
    1ffd:	00 
    1ffe:	48 8b 45 c8          	mov    -0x38(%rbp),%rax
    2002:	48 01 d0             	add    %rdx,%rax
    2005:	48 8b 08             	mov    (%rax),%rcx
    2008:	8b 45 ec             	mov    -0x14(%rbp),%eax
    200b:	48 98                	cltq
    200d:	48 8d 14 c5 00 00 00 	lea    0x0(,%rax,8),%rdx
    2014:	00 
    2015:	48 8b 45 d0          	mov    -0x30(%rbp),%rax
    2019:	48 01 d0             	add    %rdx,%rax
    201c:	48 8b 00             	mov    (%rax),%rax
    201f:	48 33 45 f8          	xor    -0x8(%rbp),%rax
    2023:	48 8d 34 00          	lea    (%rax,%rax,1),%rsi
    2027:	48 8b 45 f8          	mov    -0x8(%rbp),%rax
    202b:	48 c1 e8 03          	shr    $0x3,%rax
    202f:	48 89 c2             	mov    %rax,%rdx
    2032:	48 89 d0             	mov    %rdx,%rax
    2035:	48 01 c0             	add    %rax,%rax
    2038:	48 01 d0             	add    %rdx,%rax
    203b:	48 31 c6             	xor    %rax,%rsi
    203e:	48 89 f2             	mov    %rsi,%rdx
    2041:	8b 45 ec             	mov    -0x14(%rbp),%eax
    2044:	48 98                	cltq
    2046:	48 8d 34 c5 00 00 00 	lea    0x0(,%rax,8),%rsi
    204d:	00 
    204e:	48 8b 45 c8          	mov    -0x38(%rbp),%rax
    2052:	48 01 f0             	add    %rsi,%rax
    2055:	48 31 ca             	xor    %rcx,%rdx
    2058:	48 89 10             	mov    %rdx,(%rax)
    205b:	83 45 ec 01          	addl   $0x1,-0x14(%rbp)
    205f:	8b 45 ec             	mov    -0x14(%rbp),%eax
    2062:	3b 45 dc             	cmp    -0x24(%rbp),%eax
    2065:	0f 8c 67 ff ff ff    	jl     1fd2 <m_vec_mul_add_x+0x29>
    206b:	90                   	nop
    206c:	90                   	nop
    206d:	5d                   	pop    %rbp
    206e:	c3                   	ret

000000000000206f <m_vec_mul_add_x_inv>:
    206f:	55                   	push   %rbp
    2070:	48 89 e5             	mov    %rsp,%rbp
    2073:	89 7d dc             	mov    %edi,-0x24(%rbp)
    2076:	48 89 75 d0          	mov    %rsi,-0x30(%rbp)
    207a:	48 89 55 c8          	mov    %rdx,-0x38(%rbp)
    207e:	48 b8 11 11 11 11 11 	movabs $0x1111111111111111,%rax
    2085:	11 11 11 
    2088:	48 89 45 f0          	mov    %rax,-0x10(%rbp)
    208c:	c7 45 ec 00 00 00 00 	movl   $0x0,-0x14(%rbp)
    2093:	e9 89 00 00 00       	jmp    2121 <m_vec_mul_add_x_inv+0xb2>
    2098:	8b 45 ec             	mov    -0x14(%rbp),%eax
    209b:	48 98                	cltq
    209d:	48 8d 14 c5 00 00 00 	lea    0x0(,%rax,8),%rdx
    20a4:	00 
    20a5:	48 8b 45 d0          	mov    -0x30(%rbp),%rax
    20a9:	48 01 d0             	add    %rdx,%rax
    20ac:	48 8b 00             	mov    (%rax),%rax
    20af:	48 23 45 f0          	and    -0x10(%rbp),%rax
    20b3:	48 89 45 f8          	mov    %rax,-0x8(%rbp)
    20b7:	8b 45 ec             	mov    -0x14(%rbp),%eax
    20ba:	48 98                	cltq
    20bc:	48 8d 14 c5 00 00 00 	lea    0x0(,%rax,8),%rdx
    20c3:	00 
    20c4:	48 8b 45 c8          	mov    -0x38(%rbp),%rax
    20c8:	48 01 d0             	add    %rdx,%rax
    20cb:	48 8b 08             	mov    (%rax),%rcx
    20ce:	8b 45 ec             	mov    -0x14(%rbp),%eax
    20d1:	48 98                	cltq
    20d3:	48 8d 14 c5 00 00 00 	lea    0x0(,%rax,8),%rdx
    20da:	00 
    20db:	48 8b 45 d0          	mov    -0x30(%rbp),%rax
    20df:	48 01 d0             	add    %rdx,%rax
    20e2:	48 8b 00             	mov    (%rax),%rax
    20e5:	48 33 45 f8          	xor    -0x8(%rbp),%rax
    20e9:	48 d1 e8             	shr    $1,%rax
    20ec:	48 89 c6             	mov    %rax,%rsi
    20ef:	48 8b 55 f8          	mov    -0x8(%rbp),%rdx
    20f3:	48 89 d0             	mov    %rdx,%rax
    20f6:	48 c1 e0 03          	shl    $0x3,%rax
    20fa:	48 01 d0             	add    %rdx,%rax
    20fd:	48 31 c6             	xor    %rax,%rsi
    2100:	48 89 f2             	mov    %rsi,%rdx
    2103:	8b 45 ec             	mov    -0x14(%rbp),%eax
    2106:	48 98                	cltq
    2108:	48 8d 34 c5 00 00 00 	lea    0x0(,%rax,8),%rsi
    210f:	00 
    2110:	48 8b 45 c8          	mov    -0x38(%rbp),%rax
    2114:	48 01 f0             	add    %rsi,%rax
    2117:	48 31 ca             	xor    %rcx,%rdx
    211a:	48 89 10             	mov    %rdx,(%rax)
    211d:	83 45 ec 01          	addl   $0x1,-0x14(%rbp)
    2121:	8b 45 ec             	mov    -0x14(%rbp),%eax
    2124:	3b 45 dc             	cmp    -0x24(%rbp),%eax
    2127:	0f 8c 6b ff ff ff    	jl     2098 <m_vec_mul_add_x_inv+0x29>
    212d:	90                   	nop
    212e:	90                   	nop
    212f:	5d                   	pop    %rbp
    2130:	c3                   	ret

0000000000002131 <m_vec_multiply_bins>:
    2131:	55                   	push   %rbp
    2132:	48 89 e5             	mov    %rsp,%rbp
    2135:	48 83 ec 18          	sub    $0x18,%rsp
    2139:	89 7d fc             	mov    %edi,-0x4(%rbp)
    213c:	48 89 75 f0          	mov    %rsi,-0x10(%rbp)
    2140:	48 89 55 e8          	mov    %rdx,-0x18(%rbp)
    2144:	8b 55 fc             	mov    -0x4(%rbp),%edx
    2147:	89 d0                	mov    %edx,%eax
    2149:	c1 e0 02             	shl    $0x2,%eax
    214c:	01 d0                	add    %edx,%eax
    214e:	01 c0                	add    %eax,%eax
    2150:	48 98                	cltq
    2152:	48 8d 14 c5 00 00 00 	lea    0x0(,%rax,8),%rdx
    2159:	00 
    215a:	48 8b 45 f0          	mov    -0x10(%rbp),%rax
    215e:	48 8d 34 02          	lea    (%rdx,%rax,1),%rsi
    2162:	8b 55 fc             	mov    -0x4(%rbp),%edx
    2165:	89 d0                	mov    %edx,%eax
    2167:	c1 e0 02             	shl    $0x2,%eax
    216a:	01 d0                	add    %edx,%eax
    216c:	48 98                	cltq
    216e:	48 8d 14 c5 00 00 00 	lea    0x0(,%rax,8),%rdx
    2175:	00 
    2176:	48 8b 45 f0          	mov    -0x10(%rbp),%rax
    217a:	48 8d 0c 02          	lea    (%rdx,%rax,1),%rcx
    217e:	8b 45 fc             	mov    -0x4(%rbp),%eax
    2181:	48 89 f2             	mov    %rsi,%rdx
    2184:	48 89 ce             	mov    %rcx,%rsi
    2187:	89 c7                	mov    %eax,%edi
    2189:	e8 e1 fe ff ff       	call   206f <m_vec_mul_add_x_inv>
    218e:	8b 55 fc             	mov    -0x4(%rbp),%edx
    2191:	89 d0                	mov    %edx,%eax
    2193:	01 c0                	add    %eax,%eax
    2195:	01 d0                	add    %edx,%eax
    2197:	c1 e0 02             	shl    $0x2,%eax
    219a:	48 98                	cltq
    219c:	48 8d 14 c5 00 00 00 	lea    0x0(,%rax,8),%rdx
    21a3:	00 
    21a4:	48 8b 45 f0          	mov    -0x10(%rbp),%rax
    21a8:	48 8d 34 02          	lea    (%rdx,%rax,1),%rsi
    21ac:	8b 55 fc             	mov    -0x4(%rbp),%edx
    21af:	89 d0                	mov    %edx,%eax
    21b1:	c1 e0 02             	shl    $0x2,%eax
    21b4:	01 d0                	add    %edx,%eax
    21b6:	01 c0                	add    %eax,%eax
    21b8:	01 d0                	add    %edx,%eax
    21ba:	48 98                	cltq
    21bc:	48 8d 14 c5 00 00 00 	lea    0x0(,%rax,8),%rdx
    21c3:	00 
    21c4:	48 8b 45 f0          	mov    -0x10(%rbp),%rax
    21c8:	48 8d 0c 02          	lea    (%rdx,%rax,1),%rcx
    21cc:	8b 45 fc             	mov    -0x4(%rbp),%eax
    21cf:	48 89 f2             	mov    %rsi,%rdx
    21d2:	48 89 ce             	mov    %rcx,%rsi
    21d5:	89 c7                	mov    %eax,%edi
    21d7:	e8 cd fd ff ff       	call   1fa9 <m_vec_mul_add_x>
    21dc:	8b 55 fc             	mov    -0x4(%rbp),%edx
    21df:	89 d0                	mov    %edx,%eax
    21e1:	c1 e0 03             	shl    $0x3,%eax
    21e4:	29 d0                	sub    %edx,%eax
    21e6:	48 98                	cltq
    21e8:	48 8d 14 c5 00 00 00 	lea    0x0(,%rax,8),%rdx
    21ef:	00 
    21f0:	48 8b 45 f0          	mov    -0x10(%rbp),%rax
    21f4:	48 8d 34 02          	lea    (%rdx,%rax,1),%rsi
    21f8:	8b 55 fc             	mov    -0x4(%rbp),%edx
    21fb:	89 d0                	mov    %edx,%eax
    21fd:	c1 e0 02             	shl    $0x2,%eax
    2200:	01 d0                	add    %edx,%eax
    2202:	01 c0                	add    %eax,%eax
    2204:	48 98                	cltq
    2206:	48 8d 14 c5 00 00 00 	lea    0x0(,%rax,8),%rdx
    220d:	00 
    220e:	48 8b 45 f0          	mov    -0x10(%rbp),%rax
    2212:	48 8d 0c 02          	lea    (%rdx,%rax,1),%rcx
    2216:	8b 45 fc             	mov    -0x4(%rbp),%eax
    2219:	48 89 f2             	mov    %rsi,%rdx
    221c:	48 89 ce             	mov    %rcx,%rsi
    221f:	89 c7                	mov    %eax,%edi
    2221:	e8 49 fe ff ff       	call   206f <m_vec_mul_add_x_inv>
    2226:	8b 55 fc             	mov    -0x4(%rbp),%edx
    2229:	89 d0                	mov    %edx,%eax
    222b:	01 c0                	add    %eax,%eax
    222d:	01 d0                	add    %edx,%eax
    222f:	01 c0                	add    %eax,%eax
    2231:	48 98                	cltq
    2233:	48 8d 14 c5 00 00 00 	lea    0x0(,%rax,8),%rdx
    223a:	00 
    223b:	48 8b 45 f0          	mov    -0x10(%rbp),%rax
    223f:	48 8d 34 02          	lea    (%rdx,%rax,1),%rsi
    2243:	8b 55 fc             	mov    -0x4(%rbp),%edx
    2246:	89 d0                	mov    %edx,%eax
    2248:	01 c0                	add    %eax,%eax
    224a:	01 d0                	add    %edx,%eax
    224c:	c1 e0 02             	shl    $0x2,%eax
    224f:	48 98                	cltq
    2251:	48 8d 14 c5 00 00 00 	lea    0x0(,%rax,8),%rdx
    2258:	00 
    2259:	48 8b 45 f0          	mov    -0x10(%rbp),%rax
    225d:	48 8d 0c 02          	lea    (%rdx,%rax,1),%rcx
    2261:	8b 45 fc             	mov    -0x4(%rbp),%eax
    2264:	48 89 f2             	mov    %rsi,%rdx
    2267:	48 89 ce             	mov    %rcx,%rsi
    226a:	89 c7                	mov    %eax,%edi
    226c:	e8 38 fd ff ff       	call   1fa9 <m_vec_mul_add_x>
    2271:	8b 45 fc             	mov    -0x4(%rbp),%eax
    2274:	6b c0 0e             	imul   $0xe,%eax,%eax
    2277:	48 98                	cltq
    2279:	48 8d 14 c5 00 00 00 	lea    0x0(,%rax,8),%rdx
    2280:	00 
    2281:	48 8b 45 f0          	mov    -0x10(%rbp),%rax
    2285:	48 8d 34 02          	lea    (%rdx,%rax,1),%rsi
    2289:	8b 55 fc             	mov    -0x4(%rbp),%edx
    228c:	89 d0                	mov    %edx,%eax
    228e:	c1 e0 03             	shl    $0x3,%eax
    2291:	29 d0                	sub    %edx,%eax
    2293:	48 98                	cltq
    2295:	48 8d 14 c5 00 00 00 	lea    0x0(,%rax,8),%rdx
    229c:	00 
    229d:	48 8b 45 f0          	mov    -0x10(%rbp),%rax
    22a1:	48 8d 0c 02          	lea    (%rdx,%rax,1),%rcx
    22a5:	8b 45 fc             	mov    -0x4(%rbp),%eax
    22a8:	48 89 f2             	mov    %rsi,%rdx
    22ab:	48 89 ce             	mov    %rcx,%rsi
    22ae:	89 c7                	mov    %eax,%edi
    22b0:	e8 ba fd ff ff       	call   206f <m_vec_mul_add_x_inv>
    22b5:	8b 55 fc             	mov    -0x4(%rbp),%edx
    22b8:	89 d0                	mov    %edx,%eax
    22ba:	01 c0                	add    %eax,%eax
    22bc:	01 d0                	add    %edx,%eax
    22be:	48 98                	cltq
    22c0:	48 8d 14 c5 00 00 00 	lea    0x0(,%rax,8),%rdx
    22c7:	00 
    22c8:	48 8b 45 f0          	mov    -0x10(%rbp),%rax
    22cc:	48 8d 34 02          	lea    (%rdx,%rax,1),%rsi
    22d0:	8b 55 fc             	mov    -0x4(%rbp),%edx
    22d3:	89 d0                	mov    %edx,%eax
    22d5:	01 c0                	add    %eax,%eax
    22d7:	01 d0                	add    %edx,%eax
    22d9:	01 c0                	add    %eax,%eax
    22db:	48 98                	cltq
    22dd:	48 8d 14 c5 00 00 00 	lea    0x0(,%rax,8),%rdx
    22e4:	00 
    22e5:	48 8b 45 f0          	mov    -0x10(%rbp),%rax
    22e9:	48 8d 0c 02          	lea    (%rdx,%rax,1),%rcx
    22ed:	8b 45 fc             	mov    -0x4(%rbp),%eax
    22f0:	48 89 f2             	mov    %rsi,%rdx
    22f3:	48 89 ce             	mov    %rcx,%rsi
    22f6:	89 c7                	mov    %eax,%edi
    22f8:	e8 ac fc ff ff       	call   1fa9 <m_vec_mul_add_x>
    22fd:	8b 55 fc             	mov    -0x4(%rbp),%edx
    2300:	89 d0                	mov    %edx,%eax
    2302:	c1 e0 04             	shl    $0x4,%eax
    2305:	29 d0                	sub    %edx,%eax
    2307:	48 98                	cltq
    2309:	48 8d 14 c5 00 00 00 	lea    0x0(,%rax,8),%rdx
    2310:	00 
    2311:	48 8b 45 f0          	mov    -0x10(%rbp),%rax
    2315:	48 01 c2             	add    %rax,%rdx
    2318:	8b 45 fc             	mov    -0x4(%rbp),%eax
    231b:	6b c0 0e             	imul   $0xe,%eax,%eax
    231e:	48 98                	cltq
    2320:	48 8d 0c c5 00 00 00 	lea    0x0(,%rax,8),%rcx
    2327:	00 
    2328:	48 8b 45 f0          	mov    -0x10(%rbp),%rax
    232c:	48 01 c1             	add    %rax,%rcx
    232f:	8b 45 fc             	mov    -0x4(%rbp),%eax
    2332:	48 89 ce             	mov    %rcx,%rsi
    2335:	89 c7                	mov    %eax,%edi
    2337:	e8 33 fd ff ff       	call   206f <m_vec_mul_add_x_inv>
    233c:	8b 45 fc             	mov    -0x4(%rbp),%eax
    233f:	c1 e0 03             	shl    $0x3,%eax
    2342:	48 98                	cltq
    2344:	48 8d 14 c5 00 00 00 	lea    0x0(,%rax,8),%rdx
    234b:	00 
    234c:	48 8b 45 f0          	mov    -0x10(%rbp),%rax
    2350:	48 8d 34 02          	lea    (%rdx,%rax,1),%rsi
    2354:	8b 55 fc             	mov    -0x4(%rbp),%edx
    2357:	89 d0                	mov    %edx,%eax
    2359:	01 c0                	add    %eax,%eax
    235b:	01 d0                	add    %edx,%eax
    235d:	48 98                	cltq
    235f:	48 8d 14 c5 00 00 00 	lea    0x0(,%rax,8),%rdx
    2366:	00 
    2367:	48 8b 45 f0          	mov    -0x10(%rbp),%rax
    236b:	48 8d 0c 02          	lea    (%rdx,%rax,1),%rcx
    236f:	8b 45 fc             	mov    -0x4(%rbp),%eax
    2372:	48 89 f2             	mov    %rsi,%rdx
    2375:	48 89 ce             	mov    %rcx,%rsi
    2378:	89 c7                	mov    %eax,%edi
    237a:	e8 2a fc ff ff       	call   1fa9 <m_vec_mul_add_x>
    237f:	8b 55 fc             	mov    -0x4(%rbp),%edx
    2382:	89 d0                	mov    %edx,%eax
    2384:	01 c0                	add    %eax,%eax
    2386:	01 d0                	add    %edx,%eax
    2388:	c1 e0 02             	shl    $0x2,%eax
    238b:	01 d0                	add    %edx,%eax
    238d:	48 98                	cltq
    238f:	48 8d 14 c5 00 00 00 	lea    0x0(,%rax,8),%rdx
    2396:	00 
    2397:	48 8b 45 f0          	mov    -0x10(%rbp),%rax
    239b:	48 8d 34 02          	lea    (%rdx,%rax,1),%rsi
    239f:	8b 55 fc             	mov    -0x4(%rbp),%edx
    23a2:	89 d0                	mov    %edx,%eax
    23a4:	c1 e0 04             	shl    $0x4,%eax
    23a7:	29 d0                	sub    %edx,%eax
    23a9:	48 98                	cltq
    23ab:	48 8d 14 c5 00 00 00 	lea    0x0(,%rax,8),%rdx
    23b2:	00 
    23b3:	48 8b 45 f0          	mov    -0x10(%rbp),%rax
    23b7:	48 8d 0c 02          	lea    (%rdx,%rax,1),%rcx
    23bb:	8b 45 fc             	mov    -0x4(%rbp),%eax
    23be:	48 89 f2             	mov    %rsi,%rdx
    23c1:	48 89 ce             	mov    %rcx,%rsi
    23c4:	89 c7                	mov    %eax,%edi
    23c6:	e8 a4 fc ff ff       	call   206f <m_vec_mul_add_x_inv>
    23cb:	8b 45 fc             	mov    -0x4(%rbp),%eax
    23ce:	c1 e0 02             	shl    $0x2,%eax
    23d1:	48 98                	cltq
    23d3:	48 8d 14 c5 00 00 00 	lea    0x0(,%rax,8),%rdx
    23da:	00 
    23db:	48 8b 45 f0          	mov    -0x10(%rbp),%rax
    23df:	48 01 c2             	add    %rax,%rdx
    23e2:	8b 45 fc             	mov    -0x4(%rbp),%eax
    23e5:	c1 e0 03             	shl    $0x3,%eax
    23e8:	48 98                	cltq
    23ea:	48 8d 0c c5 00 00 00 	lea    0x0(,%rax,8),%rcx
    23f1:	00 
    23f2:	48 8b 45 f0          	mov    -0x10(%rbp),%rax
    23f6:	48 01 c1             	add    %rax,%rcx
    23f9:	8b 45 fc             	mov    -0x4(%rbp),%eax
    23fc:	48 89 ce             	mov    %rcx,%rsi
    23ff:	89 c7                	mov    %eax,%edi
    2401:	e8 a3 fb ff ff       	call   1fa9 <m_vec_mul_add_x>
    2406:	8b 55 fc             	mov    -0x4(%rbp),%edx
    2409:	89 d0                	mov    %edx,%eax
    240b:	c1 e0 03             	shl    $0x3,%eax
    240e:	01 d0                	add    %edx,%eax
    2410:	48 98                	cltq
    2412:	48 8d 14 c5 00 00 00 	lea    0x0(,%rax,8),%rdx
    2419:	00 
    241a:	48 8b 45 f0          	mov    -0x10(%rbp),%rax
    241e:	48 8d 34 02          	lea    (%rdx,%rax,1),%rsi
    2422:	8b 55 fc             	mov    -0x4(%rbp),%edx
    2425:	89 d0                	mov    %edx,%eax
    2427:	01 c0                	add    %eax,%eax
    2429:	01 d0                	add    %edx,%eax
    242b:	c1 e0 02             	shl    $0x2,%eax
    242e:	01 d0                	add    %edx,%eax
    2430:	48 98                	cltq
    2432:	48 8d 14 c5 00 00 00 	lea    0x0(,%rax,8),%rdx
    2439:	00 
    243a:	48 8b 45 f0          	mov    -0x10(%rbp),%rax
    243e:	48 8d 0c 02          	lea    (%rdx,%rax,1),%rcx
    2442:	8b 45 fc             	mov    -0x4(%rbp),%eax
    2445:	48 89 f2             	mov    %rsi,%rdx
    2448:	48 89 ce             	mov    %rcx,%rsi
    244b:	89 c7                	mov    %eax,%edi
    244d:	e8 1d fc ff ff       	call   206f <m_vec_mul_add_x_inv>
    2452:	8b 45 fc             	mov    -0x4(%rbp),%eax
    2455:	01 c0                	add    %eax,%eax
    2457:	48 98                	cltq
    2459:	48 8d 14 c5 00 00 00 	lea    0x0(,%rax,8),%rdx
    2460:	00 
    2461:	48 8b 45 f0          	mov    -0x10(%rbp),%rax
    2465:	48 01 c2             	add    %rax,%rdx
    2468:	8b 45 fc             	mov    -0x4(%rbp),%eax
    246b:	c1 e0 02             	shl    $0x2,%eax
    246e:	48 98                	cltq
    2470:	48 8d 0c c5 00 00 00 	lea    0x0(,%rax,8),%rcx
    2477:	00 
    2478:	48 8b 45 f0          	mov    -0x10(%rbp),%rax
    247c:	48 01 c1             	add    %rax,%rcx
    247f:	8b 45 fc             	mov    -0x4(%rbp),%eax
    2482:	48 89 ce             	mov    %rcx,%rsi
    2485:	89 c7                	mov    %eax,%edi
    2487:	e8 1d fb ff ff       	call   1fa9 <m_vec_mul_add_x>
    248c:	8b 45 fc             	mov    -0x4(%rbp),%eax
    248f:	48 98                	cltq
    2491:	48 8d 14 c5 00 00 00 	lea    0x0(,%rax,8),%rdx
    2498:	00 
    2499:	48 8b 45 f0          	mov    -0x10(%rbp),%rax
    249d:	48 8d 34 02          	lea    (%rdx,%rax,1),%rsi
    24a1:	8b 55 fc             	mov    -0x4(%rbp),%edx
    24a4:	89 d0                	mov    %edx,%eax
    24a6:	c1 e0 03             	shl    $0x3,%eax
    24a9:	01 d0                	add    %edx,%eax
    24ab:	48 98                	cltq
    24ad:	48 8d 14 c5 00 00 00 	lea    0x0(,%rax,8),%rdx
    24b4:	00 
    24b5:	48 8b 45 f0          	mov    -0x10(%rbp),%rax
    24b9:	48 8d 0c 02          	lea    (%rdx,%rax,1),%rcx
    24bd:	8b 45 fc             	mov    -0x4(%rbp),%eax
    24c0:	48 89 f2             	mov    %rsi,%rdx
    24c3:	48 89 ce             	mov    %rcx,%rsi
    24c6:	89 c7                	mov    %eax,%edi
    24c8:	e8 a2 fb ff ff       	call   206f <m_vec_mul_add_x_inv>
    24cd:	8b 45 fc             	mov    -0x4(%rbp),%eax
    24d0:	48 98                	cltq
    24d2:	48 8d 14 c5 00 00 00 	lea    0x0(,%rax,8),%rdx
    24d9:	00 
    24da:	48 8b 45 f0          	mov    -0x10(%rbp),%rax
    24de:	48 01 c2             	add    %rax,%rdx
    24e1:	8b 45 fc             	mov    -0x4(%rbp),%eax
    24e4:	01 c0                	add    %eax,%eax
    24e6:	48 98                	cltq
    24e8:	48 8d 0c c5 00 00 00 	lea    0x0(,%rax,8),%rcx
    24ef:	00 
    24f0:	48 8b 45 f0          	mov    -0x10(%rbp),%rax
    24f4:	48 01 c1             	add    %rax,%rcx
    24f7:	8b 45 fc             	mov    -0x4(%rbp),%eax
    24fa:	48 89 ce             	mov    %rcx,%rsi
    24fd:	89 c7                	mov    %eax,%edi
    24ff:	e8 a5 fa ff ff       	call   1fa9 <m_vec_mul_add_x>
    2504:	8b 45 fc             	mov    -0x4(%rbp),%eax
    2507:	48 98                	cltq
    2509:	48 8d 14 c5 00 00 00 	lea    0x0(,%rax,8),%rdx
    2510:	00 
    2511:	48 8b 45 f0          	mov    -0x10(%rbp),%rax
    2515:	48 8d 0c 02          	lea    (%rdx,%rax,1),%rcx
    2519:	48 8b 55 e8          	mov    -0x18(%rbp),%rdx
    251d:	8b 45 fc             	mov    -0x4(%rbp),%eax
    2520:	48 89 ce             	mov    %rcx,%rsi
    2523:	89 c7                	mov    %eax,%edi
    2525:	e8 2f f9 ff ff       	call   1e59 <m_vec_copy>
    252a:	90                   	nop
    252b:	c9                   	leave
    252c:	c3                   	ret

000000000000252d <mul_add_m_upper_triangular_mat_x_mat>:
    252d:	55                   	push   %rbp
    252e:	48 89 e5             	mov    %rsp,%rbp
    2531:	48 83 ec 38          	sub    $0x38,%rsp
    2535:	89 7d ec             	mov    %edi,-0x14(%rbp)
    2538:	48 89 75 e0          	mov    %rsi,-0x20(%rbp)
    253c:	48 89 55 d8          	mov    %rdx,-0x28(%rbp)
    2540:	48 89 4d d0          	mov    %rcx,-0x30(%rbp)
    2544:	44 89 45 e8          	mov    %r8d,-0x18(%rbp)
    2548:	44 89 4d cc          	mov    %r9d,-0x34(%rbp)
    254c:	c7 45 f0 00 00 00 00 	movl   $0x0,-0x10(%rbp)
    2553:	c7 45 f4 00 00 00 00 	movl   $0x0,-0xc(%rbp)
    255a:	e9 9b 00 00 00       	jmp    25fa <mul_add_m_upper_triangular_mat_x_mat+0xcd>
    255f:	8b 45 18             	mov    0x18(%rbp),%eax
    2562:	0f af 45 f4          	imul   -0xc(%rbp),%eax
    2566:	89 45 f8             	mov    %eax,-0x8(%rbp)
    2569:	eb 7f                	jmp    25ea <mul_add_m_upper_triangular_mat_x_mat+0xbd>
    256b:	c7 45 fc 00 00 00 00 	movl   $0x0,-0x4(%rbp)
    2572:	eb 66                	jmp    25da <mul_add_m_upper_triangular_mat_x_mat+0xad>
    2574:	8b 45 f4             	mov    -0xc(%rbp),%eax
    2577:	0f af 45 10          	imul   0x10(%rbp),%eax
    257b:	8b 55 fc             	mov    -0x4(%rbp),%edx
    257e:	01 d0                	add    %edx,%eax
    2580:	0f af 45 ec          	imul   -0x14(%rbp),%eax
    2584:	48 98                	cltq
    2586:	48 8d 14 c5 00 00 00 	lea    0x0(,%rax,8),%rdx
    258d:	00 
    258e:	48 8b 45 d0          	mov    -0x30(%rbp),%rax
    2592:	48 01 c2             	add    %rax,%rdx
    2595:	8b 45 f8             	mov    -0x8(%rbp),%eax
    2598:	0f af 45 10          	imul   0x10(%rbp),%eax
    259c:	8b 4d fc             	mov    -0x4(%rbp),%ecx
    259f:	01 c8                	add    %ecx,%eax
    25a1:	48 98                	cltq
    25a3:	48 8b 4d d8          	mov    -0x28(%rbp),%rcx
    25a7:	48 01 c8             	add    %rcx,%rax
    25aa:	0f b6 00             	movzbl (%rax),%eax
    25ad:	0f b6 c0             	movzbl %al,%eax
    25b0:	8b 4d ec             	mov    -0x14(%rbp),%ecx
    25b3:	0f af 4d f0          	imul   -0x10(%rbp),%ecx
    25b7:	48 63 c9             	movslq %ecx,%rcx
    25ba:	48 8d 34 cd 00 00 00 	lea    0x0(,%rcx,8),%rsi
    25c1:	00 
    25c2:	48 8b 4d e0          	mov    -0x20(%rbp),%rcx
    25c6:	48 01 ce             	add    %rcx,%rsi
    25c9:	8b 7d ec             	mov    -0x14(%rbp),%edi
    25cc:	48 89 d1             	mov    %rdx,%rcx
    25cf:	89 c2                	mov    %eax,%edx
    25d1:	e8 49 f9 ff ff       	call   1f1f <m_vec_mul_add>
    25d6:	83 45 fc 01          	addl   $0x1,-0x4(%rbp)
    25da:	8b 45 fc             	mov    -0x4(%rbp),%eax
    25dd:	3b 45 10             	cmp    0x10(%rbp),%eax
    25e0:	7c 92                	jl     2574 <mul_add_m_upper_triangular_mat_x_mat+0x47>
    25e2:	83 45 f0 01          	addl   $0x1,-0x10(%rbp)
    25e6:	83 45 f8 01          	addl   $0x1,-0x8(%rbp)
    25ea:	8b 45 f8             	mov    -0x8(%rbp),%eax
    25ed:	3b 45 cc             	cmp    -0x34(%rbp),%eax
    25f0:	0f 8c 75 ff ff ff    	jl     256b <mul_add_m_upper_triangular_mat_x_mat+0x3e>
    25f6:	83 45 f4 01          	addl   $0x1,-0xc(%rbp)
    25fa:	8b 45 f4             	mov    -0xc(%rbp),%eax
    25fd:	3b 45 e8             	cmp    -0x18(%rbp),%eax
    2600:	0f 8c 59 ff ff ff    	jl     255f <mul_add_m_upper_triangular_mat_x_mat+0x32>
    2606:	90                   	nop
    2607:	90                   	nop
    2608:	c9                   	leave
    2609:	c3                   	ret

000000000000260a <mul_add_m_upper_triangular_mat_x_mat_trans>:
    260a:	55                   	push   %rbp
    260b:	48 89 e5             	mov    %rsp,%rbp
    260e:	48 83 ec 38          	sub    $0x38,%rsp
    2612:	89 7d ec             	mov    %edi,-0x14(%rbp)
    2615:	48 89 75 e0          	mov    %rsi,-0x20(%rbp)
    2619:	48 89 55 d8          	mov    %rdx,-0x28(%rbp)
    261d:	48 89 4d d0          	mov    %rcx,-0x30(%rbp)
    2621:	44 89 45 e8          	mov    %r8d,-0x18(%rbp)
    2625:	44 89 4d cc          	mov    %r9d,-0x34(%rbp)
    2629:	c7 45 f0 00 00 00 00 	movl   $0x0,-0x10(%rbp)
    2630:	c7 45 f4 00 00 00 00 	movl   $0x0,-0xc(%rbp)
    2637:	e9 9b 00 00 00       	jmp    26d7 <mul_add_m_upper_triangular_mat_x_mat_trans+0xcd>
    263c:	8b 45 18             	mov    0x18(%rbp),%eax
    263f:	0f af 45 f4          	imul   -0xc(%rbp),%eax
    2643:	89 45 f8             	mov    %eax,-0x8(%rbp)
    2646:	eb 7f                	jmp    26c7 <mul_add_m_upper_triangular_mat_x_mat_trans+0xbd>
    2648:	c7 45 fc 00 00 00 00 	movl   $0x0,-0x4(%rbp)
    264f:	eb 66                	jmp    26b7 <mul_add_m_upper_triangular_mat_x_mat_trans+0xad>
    2651:	8b 45 f4             	mov    -0xc(%rbp),%eax
    2654:	0f af 45 10          	imul   0x10(%rbp),%eax
    2658:	8b 55 fc             	mov    -0x4(%rbp),%edx
    265b:	01 d0                	add    %edx,%eax
    265d:	0f af 45 ec          	imul   -0x14(%rbp),%eax
    2661:	48 98                	cltq
    2663:	48 8d 14 c5 00 00 00 	lea    0x0(,%rax,8),%rdx
    266a:	00 
    266b:	48 8b 45 d0          	mov    -0x30(%rbp),%rax
    266f:	48 01 c2             	add    %rax,%rdx
    2672:	8b 45 fc             	mov    -0x4(%rbp),%eax
    2675:	0f af 45 cc          	imul   -0x34(%rbp),%eax
    2679:	8b 4d f8             	mov    -0x8(%rbp),%ecx
    267c:	01 c8                	add    %ecx,%eax
    267e:	48 98                	cltq
    2680:	48 8b 4d d8          	mov    -0x28(%rbp),%rcx
    2684:	48 01 c8             	add    %rcx,%rax
    2687:	0f b6 00             	movzbl (%rax),%eax
    268a:	0f b6 c0             	movzbl %al,%eax
    268d:	8b 4d ec             	mov    -0x14(%rbp),%ecx
    2690:	0f af 4d f0          	imul   -0x10(%rbp),%ecx
    2694:	48 63 c9             	movslq %ecx,%rcx
    2697:	48 8d 34 cd 00 00 00 	lea    0x0(,%rcx,8),%rsi
    269e:	00 
    269f:	48 8b 4d e0          	mov    -0x20(%rbp),%rcx
    26a3:	48 01 ce             	add    %rcx,%rsi
    26a6:	8b 7d ec             	mov    -0x14(%rbp),%edi
    26a9:	48 89 d1             	mov    %rdx,%rcx
    26ac:	89 c2                	mov    %eax,%edx
    26ae:	e8 6c f8 ff ff       	call   1f1f <m_vec_mul_add>
    26b3:	83 45 fc 01          	addl   $0x1,-0x4(%rbp)
    26b7:	8b 45 fc             	mov    -0x4(%rbp),%eax
    26ba:	3b 45 10             	cmp    0x10(%rbp),%eax
    26bd:	7c 92                	jl     2651 <mul_add_m_upper_triangular_mat_x_mat_trans+0x47>
    26bf:	83 45 f0 01          	addl   $0x1,-0x10(%rbp)
    26c3:	83 45 f8 01          	addl   $0x1,-0x8(%rbp)
    26c7:	8b 45 f8             	mov    -0x8(%rbp),%eax
    26ca:	3b 45 cc             	cmp    -0x34(%rbp),%eax
    26cd:	0f 8c 75 ff ff ff    	jl     2648 <mul_add_m_upper_triangular_mat_x_mat_trans+0x3e>
    26d3:	83 45 f4 01          	addl   $0x1,-0xc(%rbp)
    26d7:	8b 45 f4             	mov    -0xc(%rbp),%eax
    26da:	3b 45 e8             	cmp    -0x18(%rbp),%eax
    26dd:	0f 8c 59 ff ff ff    	jl     263c <mul_add_m_upper_triangular_mat_x_mat_trans+0x32>
    26e3:	90                   	nop
    26e4:	90                   	nop
    26e5:	c9                   	leave
    26e6:	c3                   	ret

00000000000026e7 <mul_add_mat_trans_x_m_mat>:
    26e7:	55                   	push   %rbp
    26e8:	48 89 e5             	mov    %rsp,%rbp
    26eb:	48 83 ec 38          	sub    $0x38,%rsp
    26ef:	89 7d ec             	mov    %edi,-0x14(%rbp)
    26f2:	48 89 75 e0          	mov    %rsi,-0x20(%rbp)
    26f6:	48 89 55 d8          	mov    %rdx,-0x28(%rbp)
    26fa:	48 89 4d d0          	mov    %rcx,-0x30(%rbp)
    26fe:	44 89 45 e8          	mov    %r8d,-0x18(%rbp)
    2702:	44 89 4d cc          	mov    %r9d,-0x34(%rbp)
    2706:	c7 45 f4 00 00 00 00 	movl   $0x0,-0xc(%rbp)
    270d:	e9 a0 00 00 00       	jmp    27b2 <mul_add_mat_trans_x_m_mat+0xcb>
    2712:	c7 45 f8 00 00 00 00 	movl   $0x0,-0x8(%rbp)
    2719:	e9 84 00 00 00       	jmp    27a2 <mul_add_mat_trans_x_m_mat+0xbb>
    271e:	c7 45 fc 00 00 00 00 	movl   $0x0,-0x4(%rbp)
    2725:	eb 6f                	jmp    2796 <mul_add_mat_trans_x_m_mat+0xaf>
    2727:	8b 45 f4             	mov    -0xc(%rbp),%eax
    272a:	0f af 45 10          	imul   0x10(%rbp),%eax
    272e:	8b 55 fc             	mov    -0x4(%rbp),%edx
    2731:	01 d0                	add    %edx,%eax
    2733:	0f af 45 ec          	imul   -0x14(%rbp),%eax
    2737:	48 98                	cltq
    2739:	48 8d 14 c5 00 00 00 	lea    0x0(,%rax,8),%rdx
    2740:	00 
    2741:	48 8b 45 d0          	mov    -0x30(%rbp),%rax
    2745:	48 01 c2             	add    %rax,%rdx
    2748:	8b 45 f8             	mov    -0x8(%rbp),%eax
    274b:	0f af 45 cc          	imul   -0x34(%rbp),%eax
    274f:	8b 4d f4             	mov    -0xc(%rbp),%ecx
    2752:	01 c8                	add    %ecx,%eax
    2754:	48 98                	cltq
    2756:	48 8b 4d e0          	mov    -0x20(%rbp),%rcx
    275a:	48 01 c8             	add    %rcx,%rax
    275d:	0f b6 00             	movzbl (%rax),%eax
    2760:	0f b6 c0             	movzbl %al,%eax
    2763:	8b 4d f8             	mov    -0x8(%rbp),%ecx
    2766:	0f af 4d 10          	imul   0x10(%rbp),%ecx
    276a:	8b 75 fc             	mov    -0x4(%rbp),%esi
    276d:	01 f1                	add    %esi,%ecx
    276f:	0f af 4d ec          	imul   -0x14(%rbp),%ecx
    2773:	48 63 c9             	movslq %ecx,%rcx
    2776:	48 8d 34 cd 00 00 00 	lea    0x0(,%rcx,8),%rsi
    277d:	00 
    277e:	48 8b 4d d8          	mov    -0x28(%rbp),%rcx
    2782:	48 01 ce             	add    %rcx,%rsi
    2785:	8b 7d ec             	mov    -0x14(%rbp),%edi
    2788:	48 89 d1             	mov    %rdx,%rcx
    278b:	89 c2                	mov    %eax,%edx
    278d:	e8 8d f7 ff ff       	call   1f1f <m_vec_mul_add>
    2792:	83 45 fc 01          	addl   $0x1,-0x4(%rbp)
    2796:	8b 45 fc             	mov    -0x4(%rbp),%eax
    2799:	3b 45 10             	cmp    0x10(%rbp),%eax
    279c:	7c 89                	jl     2727 <mul_add_mat_trans_x_m_mat+0x40>
    279e:	83 45 f8 01          	addl   $0x1,-0x8(%rbp)
    27a2:	8b 45 f8             	mov    -0x8(%rbp),%eax
    27a5:	3b 45 e8             	cmp    -0x18(%rbp),%eax
    27a8:	0f 8c 70 ff ff ff    	jl     271e <mul_add_mat_trans_x_m_mat+0x37>
    27ae:	83 45 f4 01          	addl   $0x1,-0xc(%rbp)
    27b2:	8b 45 f4             	mov    -0xc(%rbp),%eax
    27b5:	3b 45 cc             	cmp    -0x34(%rbp),%eax
    27b8:	0f 8c 54 ff ff ff    	jl     2712 <mul_add_mat_trans_x_m_mat+0x2b>
    27be:	90                   	nop
    27bf:	90                   	nop
    27c0:	c9                   	leave
    27c1:	c3                   	ret

00000000000027c2 <mul_add_mat_x_m_mat>:
    27c2:	55                   	push   %rbp
    27c3:	48 89 e5             	mov    %rsp,%rbp
    27c6:	48 83 ec 38          	sub    $0x38,%rsp
    27ca:	89 7d ec             	mov    %edi,-0x14(%rbp)
    27cd:	48 89 75 e0          	mov    %rsi,-0x20(%rbp)
    27d1:	48 89 55 d8          	mov    %rdx,-0x28(%rbp)
    27d5:	48 89 4d d0          	mov    %rcx,-0x30(%rbp)
    27d9:	44 89 45 e8          	mov    %r8d,-0x18(%rbp)
    27dd:	44 89 4d cc          	mov    %r9d,-0x34(%rbp)
    27e1:	c7 45 f4 00 00 00 00 	movl   $0x0,-0xc(%rbp)
    27e8:	e9 a0 00 00 00       	jmp    288d <mul_add_mat_x_m_mat+0xcb>
    27ed:	c7 45 f8 00 00 00 00 	movl   $0x0,-0x8(%rbp)
    27f4:	e9 84 00 00 00       	jmp    287d <mul_add_mat_x_m_mat+0xbb>
    27f9:	c7 45 fc 00 00 00 00 	movl   $0x0,-0x4(%rbp)
    2800:	eb 6f                	jmp    2871 <mul_add_mat_x_m_mat+0xaf>
    2802:	8b 45 f4             	mov    -0xc(%rbp),%eax
    2805:	0f af 45 10          	imul   0x10(%rbp),%eax
    2809:	8b 55 fc             	mov    -0x4(%rbp),%edx
    280c:	01 d0                	add    %edx,%eax
    280e:	0f af 45 ec          	imul   -0x14(%rbp),%eax
    2812:	48 98                	cltq
    2814:	48 8d 14 c5 00 00 00 	lea    0x0(,%rax,8),%rdx
    281b:	00 
    281c:	48 8b 45 d0          	mov    -0x30(%rbp),%rax
    2820:	48 01 c2             	add    %rax,%rdx
    2823:	8b 45 f4             	mov    -0xc(%rbp),%eax
    2826:	0f af 45 cc          	imul   -0x34(%rbp),%eax
    282a:	8b 4d f8             	mov    -0x8(%rbp),%ecx
    282d:	01 c8                	add    %ecx,%eax
    282f:	48 98                	cltq
    2831:	48 8b 4d e0          	mov    -0x20(%rbp),%rcx
    2835:	48 01 c8             	add    %rcx,%rax
    2838:	0f b6 00             	movzbl (%rax),%eax
    283b:	0f b6 c0             	movzbl %al,%eax
    283e:	8b 4d f8             	mov    -0x8(%rbp),%ecx
    2841:	0f af 4d 10          	imul   0x10(%rbp),%ecx
    2845:	8b 75 fc             	mov    -0x4(%rbp),%esi
    2848:	01 f1                	add    %esi,%ecx
    284a:	0f af 4d ec          	imul   -0x14(%rbp),%ecx
    284e:	48 63 c9             	movslq %ecx,%rcx
    2851:	48 8d 34 cd 00 00 00 	lea    0x0(,%rcx,8),%rsi
    2858:	00 
    2859:	48 8b 4d d8          	mov    -0x28(%rbp),%rcx
    285d:	48 01 ce             	add    %rcx,%rsi
    2860:	8b 7d ec             	mov    -0x14(%rbp),%edi
    2863:	48 89 d1             	mov    %rdx,%rcx
    2866:	89 c2                	mov    %eax,%edx
    2868:	e8 b2 f6 ff ff       	call   1f1f <m_vec_mul_add>
    286d:	83 45 fc 01          	addl   $0x1,-0x4(%rbp)
    2871:	8b 45 fc             	mov    -0x4(%rbp),%eax
    2874:	3b 45 10             	cmp    0x10(%rbp),%eax
    2877:	7c 89                	jl     2802 <mul_add_mat_x_m_mat+0x40>
    2879:	83 45 f8 01          	addl   $0x1,-0x8(%rbp)
    287d:	8b 45 f8             	mov    -0x8(%rbp),%eax
    2880:	3b 45 cc             	cmp    -0x34(%rbp),%eax
    2883:	0f 8c 70 ff ff ff    	jl     27f9 <mul_add_mat_x_m_mat+0x37>
    2889:	83 45 f4 01          	addl   $0x1,-0xc(%rbp)
    288d:	8b 45 f4             	mov    -0xc(%rbp),%eax
    2890:	3b 45 e8             	cmp    -0x18(%rbp),%eax
    2893:	0f 8c 54 ff ff ff    	jl     27ed <mul_add_mat_x_m_mat+0x2b>
    2899:	90                   	nop
    289a:	90                   	nop
    289b:	c9                   	leave
    289c:	c3                   	ret

000000000000289d <P1_times_O>:
    289d:	55                   	push   %rbp
    289e:	48 89 e5             	mov    %rsp,%rbp
    28a1:	48 83 ec 20          	sub    $0x20,%rsp
    28a5:	48 89 7d f8          	mov    %rdi,-0x8(%rbp)
    28a9:	48 89 75 f0          	mov    %rsi,-0x10(%rbp)
    28ad:	48 89 55 e8          	mov    %rdx,-0x18(%rbp)
    28b1:	48 89 4d e0          	mov    %rcx,-0x20(%rbp)
    28b5:	48 8b 45 f8          	mov    -0x8(%rbp),%rax
    28b9:	8b 78 08             	mov    0x8(%rax),%edi
    28bc:	48 8b 45 f8          	mov    -0x8(%rbp),%rax
    28c0:	8b 50 04             	mov    0x4(%rax),%edx
    28c3:	48 8b 45 f8          	mov    -0x8(%rbp),%rax
    28c7:	8b 40 08             	mov    0x8(%rax),%eax
    28ca:	29 c2                	sub    %eax,%edx
    28cc:	41 89 d1             	mov    %edx,%r9d
    28cf:	48 8b 45 f8          	mov    -0x8(%rbp),%rax
    28d3:	8b 50 04             	mov    0x4(%rax),%edx
    28d6:	48 8b 45 f8          	mov    -0x8(%rbp),%rax
    28da:	8b 40 08             	mov    0x8(%rax),%eax
    28dd:	29 c2                	sub    %eax,%edx
    28df:	41 89 d0             	mov    %edx,%r8d
    28e2:	48 8b 45 f8          	mov    -0x8(%rbp),%rax
    28e6:	8b 40 5c             	mov    0x5c(%rax),%eax
    28e9:	48 8b 4d e0          	mov    -0x20(%rbp),%rcx
    28ed:	48 8b 55 e8          	mov    -0x18(%rbp),%rdx
    28f1:	48 8b 75 f0          	mov    -0x10(%rbp),%rsi
    28f5:	6a 01                	push   $0x1
    28f7:	57                   	push   %rdi
    28f8:	89 c7                	mov    %eax,%edi
    28fa:	e8 2e fc ff ff       	call   252d <mul_add_m_upper_triangular_mat_x_mat>
    28ff:	48 83 c4 10          	add    $0x10,%rsp
    2903:	90                   	nop
    2904:	c9                   	leave
    2905:	c3                   	ret

0000000000002906 <P1_times_Vt>:
    2906:	55                   	push   %rbp
    2907:	48 89 e5             	mov    %rsp,%rbp
    290a:	48 83 ec 20          	sub    $0x20,%rsp
    290e:	48 89 7d f8          	mov    %rdi,-0x8(%rbp)
    2912:	48 89 75 f0          	mov    %rsi,-0x10(%rbp)
    2916:	48 89 55 e8          	mov    %rdx,-0x18(%rbp)
    291a:	48 89 4d e0          	mov    %rcx,-0x20(%rbp)
    291e:	48 8b 45 f8          	mov    -0x8(%rbp),%rax
    2922:	8b 78 0c             	mov    0xc(%rax),%edi
    2925:	48 8b 45 f8          	mov    -0x8(%rbp),%rax
    2929:	8b 50 04             	mov    0x4(%rax),%edx
    292c:	48 8b 45 f8          	mov    -0x8(%rbp),%rax
    2930:	8b 40 08             	mov    0x8(%rax),%eax
    2933:	29 c2                	sub    %eax,%edx
    2935:	41 89 d1             	mov    %edx,%r9d
    2938:	48 8b 45 f8          	mov    -0x8(%rbp),%rax
    293c:	8b 50 04             	mov    0x4(%rax),%edx
    293f:	48 8b 45 f8          	mov    -0x8(%rbp),%rax
    2943:	8b 40 08             	mov    0x8(%rax),%eax
    2946:	29 c2                	sub    %eax,%edx
    2948:	41 89 d0             	mov    %edx,%r8d
    294b:	48 8b 45 f8          	mov    -0x8(%rbp),%rax
    294f:	8b 40 5c             	mov    0x5c(%rax),%eax
    2952:	48 8b 4d e0          	mov    -0x20(%rbp),%rcx
    2956:	48 8b 55 e8          	mov    -0x18(%rbp),%rdx
    295a:	48 8b 75 f0          	mov    -0x10(%rbp),%rsi
    295e:	6a 01                	push   $0x1
    2960:	57                   	push   %rdi
    2961:	89 c7                	mov    %eax,%edi
    2963:	e8 a2 fc ff ff       	call   260a <mul_add_m_upper_triangular_mat_x_mat_trans>
    2968:	48 83 c4 10          	add    $0x10,%rsp
    296c:	90                   	nop
    296d:	c9                   	leave
    296e:	c3                   	ret

000000000000296f <mayo_generic_m_calculate_PS>:
    296f:	55                   	push   %rbp
    2970:	48 89 e5             	mov    %rsp,%rbp
    2973:	4c 8d 9c 24 00 90 df 	lea    -0x207000(%rsp),%r11
    297a:	ff 
    297b:	48 81 ec 00 10 00 00 	sub    $0x1000,%rsp
    2982:	48 83 0c 24 00       	orq    $0x0,(%rsp)
    2987:	4c 39 dc             	cmp    %r11,%rsp
    298a:	75 ef                	jne    297b <mayo_generic_m_calculate_PS+0xc>
    298c:	48 81 ec 80 0c 00 00 	sub    $0xc80,%rsp
    2993:	48 89 bd a8 83 df ff 	mov    %rdi,-0x207c58(%rbp)
    299a:	48 89 b5 a0 83 df ff 	mov    %rsi,-0x207c60(%rbp)
    29a1:	48 89 95 98 83 df ff 	mov    %rdx,-0x207c68(%rbp)
    29a8:	48 89 8d 90 83 df ff 	mov    %rcx,-0x207c70(%rbp)
    29af:	44 89 85 8c 83 df ff 	mov    %r8d,-0x207c74(%rbp)
    29b6:	44 89 8d 88 83 df ff 	mov    %r9d,-0x207c78(%rbp)
    29bd:	48 8b 45 20          	mov    0x20(%rbp),%rax
    29c1:	48 89 85 80 83 df ff 	mov    %rax,-0x207c80(%rbp)
    29c8:	64 48 8b 04 25 28 00 	mov    %fs:0x28,%rax
    29cf:	00 00 
    29d1:	48 89 45 f8          	mov    %rax,-0x8(%rbp)
    29d5:	31 c0                	xor    %eax,%eax
    29d7:	8b 55 10             	mov    0x10(%rbp),%edx
    29da:	8b 85 88 83 df ff    	mov    -0x207c78(%rbp),%eax
    29e0:	01 d0                	add    %edx,%eax
    29e2:	89 85 e8 83 df ff    	mov    %eax,-0x207c18(%rbp)
    29e8:	8b 85 8c 83 df ff    	mov    -0x207c74(%rbp),%eax
    29ee:	83 c0 0f             	add    $0xf,%eax
    29f1:	8d 50 0f             	lea    0xf(%rax),%edx
    29f4:	85 c0                	test   %eax,%eax
    29f6:	0f 48 c2             	cmovs  %edx,%eax
    29f9:	c1 f8 04             	sar    $0x4,%eax
    29fc:	89 85 ec 83 df ff    	mov    %eax,-0x207c14(%rbp)
    2a02:	48 8d 85 f0 83 df ff 	lea    -0x207c10(%rbp),%rax
    2a09:	ba 00 7c 20 00       	mov    $0x207c00,%edx
    2a0e:	be 00 00 00 00       	mov    $0x0,%esi
    2a13:	48 89 c7             	mov    %rax,%rdi
    2a16:	e8 e5 e7 ff ff       	call   1200 <memset@plt>
    2a1b:	c7 85 bc 83 df ff 00 	movl   $0x0,-0x207c44(%rbp)
    2a22:	00 00 00 
    2a25:	c7 85 c0 83 df ff 00 	movl   $0x0,-0x207c40(%rbp)
    2a2c:	00 00 00 
    2a2f:	e9 d3 01 00 00       	jmp    2c07 <mayo_generic_m_calculate_PS+0x298>
    2a34:	8b 85 c0 83 df ff    	mov    -0x207c40(%rbp),%eax
    2a3a:	89 85 c4 83 df ff    	mov    %eax,-0x207c3c(%rbp)
    2a40:	e9 bf 00 00 00       	jmp    2b04 <mayo_generic_m_calculate_PS+0x195>
    2a45:	c7 85 c8 83 df ff 00 	movl   $0x0,-0x207c38(%rbp)
    2a4c:	00 00 00 
    2a4f:	e9 93 00 00 00       	jmp    2ae7 <mayo_generic_m_calculate_PS+0x178>
    2a54:	8b 85 c0 83 df ff    	mov    -0x207c40(%rbp),%eax
    2a5a:	0f af 45 18          	imul   0x18(%rbp),%eax
    2a5e:	8b 95 c8 83 df ff    	mov    -0x207c38(%rbp),%edx
    2a64:	01 d0                	add    %edx,%eax
    2a66:	c1 e0 04             	shl    $0x4,%eax
    2a69:	89 c2                	mov    %eax,%edx
    2a6b:	8b 85 c8 83 df ff    	mov    -0x207c38(%rbp),%eax
    2a71:	0f af 85 e8 83 df ff 	imul   -0x207c18(%rbp),%eax
    2a78:	8b 8d c4 83 df ff    	mov    -0x207c3c(%rbp),%ecx
    2a7e:	01 c8                	add    %ecx,%eax
    2a80:	48 98                	cltq
    2a82:	48 8b 8d 90 83 df ff 	mov    -0x207c70(%rbp),%rcx
    2a89:	48 01 c8             	add    %rcx,%rax
    2a8c:	0f b6 00             	movzbl (%rax),%eax
    2a8f:	0f b6 c0             	movzbl %al,%eax
    2a92:	01 d0                	add    %edx,%eax
    2a94:	0f af 85 ec 83 df ff 	imul   -0x207c14(%rbp),%eax
    2a9b:	48 98                	cltq
    2a9d:	48 8d 14 c5 00 00 00 	lea    0x0(,%rax,8),%rdx
    2aa4:	00 
    2aa5:	48 8d 85 f0 83 df ff 	lea    -0x207c10(%rbp),%rax
    2aac:	48 01 c2             	add    %rax,%rdx
    2aaf:	8b 85 bc 83 df ff    	mov    -0x207c44(%rbp),%eax
    2ab5:	0f af 85 ec 83 df ff 	imul   -0x207c14(%rbp),%eax
    2abc:	48 98                	cltq
    2abe:	48 8d 0c c5 00 00 00 	lea    0x0(,%rax,8),%rcx
    2ac5:	00 
    2ac6:	48 8b 85 a8 83 df ff 	mov    -0x207c58(%rbp),%rax
    2acd:	48 01 c1             	add    %rax,%rcx
    2ad0:	8b 85 ec 83 df ff    	mov    -0x207c14(%rbp),%eax
    2ad6:	48 89 ce             	mov    %rcx,%rsi
    2ad9:	89 c7                	mov    %eax,%edi
    2adb:	e8 cf f3 ff ff       	call   1eaf <m_vec_add>
    2ae0:	83 85 c8 83 df ff 01 	addl   $0x1,-0x207c38(%rbp)
    2ae7:	8b 85 c8 83 df ff    	mov    -0x207c38(%rbp),%eax
    2aed:	3b 45 18             	cmp    0x18(%rbp),%eax
    2af0:	0f 8c 5e ff ff ff    	jl     2a54 <mayo_generic_m_calculate_PS+0xe5>
    2af6:	83 85 bc 83 df ff 01 	addl   $0x1,-0x207c44(%rbp)
    2afd:	83 85 c4 83 df ff 01 	addl   $0x1,-0x207c3c(%rbp)
    2b04:	8b 85 c4 83 df ff    	mov    -0x207c3c(%rbp),%eax
    2b0a:	3b 85 88 83 df ff    	cmp    -0x207c78(%rbp),%eax
    2b10:	0f 8c 2f ff ff ff    	jl     2a45 <mayo_generic_m_calculate_PS+0xd6>
    2b16:	c7 85 cc 83 df ff 00 	movl   $0x0,-0x207c34(%rbp)
    2b1d:	00 00 00 
    2b20:	e9 cc 00 00 00       	jmp    2bf1 <mayo_generic_m_calculate_PS+0x282>
    2b25:	c7 85 d0 83 df ff 00 	movl   $0x0,-0x207c30(%rbp)
    2b2c:	00 00 00 
    2b2f:	e9 a7 00 00 00       	jmp    2bdb <mayo_generic_m_calculate_PS+0x26c>
    2b34:	8b 85 c0 83 df ff    	mov    -0x207c40(%rbp),%eax
    2b3a:	0f af 45 18          	imul   0x18(%rbp),%eax
    2b3e:	8b 95 d0 83 df ff    	mov    -0x207c30(%rbp),%edx
    2b44:	01 d0                	add    %edx,%eax
    2b46:	c1 e0 04             	shl    $0x4,%eax
    2b49:	89 c2                	mov    %eax,%edx
    2b4b:	8b 85 d0 83 df ff    	mov    -0x207c30(%rbp),%eax
    2b51:	0f af 85 e8 83 df ff 	imul   -0x207c18(%rbp),%eax
    2b58:	8b 8d cc 83 df ff    	mov    -0x207c34(%rbp),%ecx
    2b5e:	01 c1                	add    %eax,%ecx
    2b60:	8b 85 88 83 df ff    	mov    -0x207c78(%rbp),%eax
    2b66:	01 c8                	add    %ecx,%eax
    2b68:	48 98                	cltq
    2b6a:	48 8b 8d 90 83 df ff 	mov    -0x207c70(%rbp),%rcx
    2b71:	48 01 c8             	add    %rcx,%rax
    2b74:	0f b6 00             	movzbl (%rax),%eax
    2b77:	0f b6 c0             	movzbl %al,%eax
    2b7a:	01 d0                	add    %edx,%eax
    2b7c:	0f af 85 ec 83 df ff 	imul   -0x207c14(%rbp),%eax
    2b83:	48 98                	cltq
    2b85:	48 8d 14 c5 00 00 00 	lea    0x0(,%rax,8),%rdx
    2b8c:	00 
    2b8d:	48 8d 85 f0 83 df ff 	lea    -0x207c10(%rbp),%rax
    2b94:	48 01 c2             	add    %rax,%rdx
    2b97:	8b 85 c0 83 df ff    	mov    -0x207c40(%rbp),%eax
    2b9d:	0f af 45 10          	imul   0x10(%rbp),%eax
    2ba1:	8b 8d cc 83 df ff    	mov    -0x207c34(%rbp),%ecx
    2ba7:	01 c8                	add    %ecx,%eax
    2ba9:	0f af 85 ec 83 df ff 	imul   -0x207c14(%rbp),%eax
    2bb0:	48 98                	cltq
    2bb2:	48 8d 0c c5 00 00 00 	lea    0x0(,%rax,8),%rcx
    2bb9:	00 
    2bba:	48 8b 85 a0 83 df ff 	mov    -0x207c60(%rbp),%rax
    2bc1:	48 01 c1             	add    %rax,%rcx
    2bc4:	8b 85 ec 83 df ff    	mov    -0x207c14(%rbp),%eax
    2bca:	48 89 ce             	mov    %rcx,%rsi
    2bcd:	89 c7                	mov    %eax,%edi
    2bcf:	e8 db f2 ff ff       	call   1eaf <m_vec_add>
    2bd4:	83 85 d0 83 df ff 01 	addl   $0x1,-0x207c30(%rbp)
    2bdb:	8b 85 d0 83 df ff    	mov    -0x207c30(%rbp),%eax
    2be1:	3b 45 18             	cmp    0x18(%rbp),%eax
    2be4:	0f 8c 4a ff ff ff    	jl     2b34 <mayo_generic_m_calculate_PS+0x1c5>
    2bea:	83 85 cc 83 df ff 01 	addl   $0x1,-0x207c34(%rbp)
    2bf1:	8b 85 cc 83 df ff    	mov    -0x207c34(%rbp),%eax
    2bf7:	3b 45 10             	cmp    0x10(%rbp),%eax
    2bfa:	0f 8c 25 ff ff ff    	jl     2b25 <mayo_generic_m_calculate_PS+0x1b6>
    2c00:	83 85 c0 83 df ff 01 	addl   $0x1,-0x207c40(%rbp)
    2c07:	8b 85 c0 83 df ff    	mov    -0x207c40(%rbp),%eax
    2c0d:	3b 85 88 83 df ff    	cmp    -0x207c78(%rbp),%eax
    2c13:	0f 8c 1b fe ff ff    	jl     2a34 <mayo_generic_m_calculate_PS+0xc5>
    2c19:	c7 85 d4 83 df ff 00 	movl   $0x0,-0x207c2c(%rbp)
    2c20:	00 00 00 
    2c23:	8b 85 88 83 df ff    	mov    -0x207c78(%rbp),%eax
    2c29:	89 85 d8 83 df ff    	mov    %eax,-0x207c28(%rbp)
    2c2f:	e9 e9 00 00 00       	jmp    2d1d <mayo_generic_m_calculate_PS+0x3ae>
    2c34:	8b 85 d8 83 df ff    	mov    -0x207c28(%rbp),%eax
    2c3a:	89 85 dc 83 df ff    	mov    %eax,-0x207c24(%rbp)
    2c40:	e9 bf 00 00 00       	jmp    2d04 <mayo_generic_m_calculate_PS+0x395>
    2c45:	c7 85 e0 83 df ff 00 	movl   $0x0,-0x207c20(%rbp)
    2c4c:	00 00 00 
    2c4f:	e9 93 00 00 00       	jmp    2ce7 <mayo_generic_m_calculate_PS+0x378>
    2c54:	8b 85 d8 83 df ff    	mov    -0x207c28(%rbp),%eax
    2c5a:	0f af 45 18          	imul   0x18(%rbp),%eax
    2c5e:	8b 95 e0 83 df ff    	mov    -0x207c20(%rbp),%edx
    2c64:	01 d0                	add    %edx,%eax
    2c66:	c1 e0 04             	shl    $0x4,%eax
    2c69:	89 c2                	mov    %eax,%edx
    2c6b:	8b 85 e0 83 df ff    	mov    -0x207c20(%rbp),%eax
    2c71:	0f af 85 e8 83 df ff 	imul   -0x207c18(%rbp),%eax
    2c78:	8b 8d dc 83 df ff    	mov    -0x207c24(%rbp),%ecx
    2c7e:	01 c8                	add    %ecx,%eax
    2c80:	48 98                	cltq
    2c82:	48 8b 8d 90 83 df ff 	mov    -0x207c70(%rbp),%rcx
    2c89:	48 01 c8             	add    %rcx,%rax
    2c8c:	0f b6 00             	movzbl (%rax),%eax
    2c8f:	0f b6 c0             	movzbl %al,%eax
    2c92:	01 d0                	add    %edx,%eax
    2c94:	0f af 85 ec 83 df ff 	imul   -0x207c14(%rbp),%eax
    2c9b:	48 98                	cltq
    2c9d:	48 8d 14 c5 00 00 00 	lea    0x0(,%rax,8),%rdx
    2ca4:	00 
    2ca5:	48 8d 85 f0 83 df ff 	lea    -0x207c10(%rbp),%rax
    2cac:	48 01 c2             	add    %rax,%rdx
    2caf:	8b 85 d4 83 df ff    	mov    -0x207c2c(%rbp),%eax
    2cb5:	0f af 85 ec 83 df ff 	imul   -0x207c14(%rbp),%eax
    2cbc:	48 98                	cltq
    2cbe:	48 8d 0c c5 00 00 00 	lea    0x0(,%rax,8),%rcx
    2cc5:	00 
    2cc6:	48 8b 85 98 83 df ff 	mov    -0x207c68(%rbp),%rax
    2ccd:	48 01 c1             	add    %rax,%rcx
    2cd0:	8b 85 ec 83 df ff    	mov    -0x207c14(%rbp),%eax
    2cd6:	48 89 ce             	mov    %rcx,%rsi
    2cd9:	89 c7                	mov    %eax,%edi
    2cdb:	e8 cf f1 ff ff       	call   1eaf <m_vec_add>
    2ce0:	83 85 e0 83 df ff 01 	addl   $0x1,-0x207c20(%rbp)
    2ce7:	8b 85 e0 83 df ff    	mov    -0x207c20(%rbp),%eax
    2ced:	3b 45 18             	cmp    0x18(%rbp),%eax
    2cf0:	0f 8c 5e ff ff ff    	jl     2c54 <mayo_generic_m_calculate_PS+0x2e5>
    2cf6:	83 85 d4 83 df ff 01 	addl   $0x1,-0x207c2c(%rbp)
    2cfd:	83 85 dc 83 df ff 01 	addl   $0x1,-0x207c24(%rbp)
    2d04:	8b 85 dc 83 df ff    	mov    -0x207c24(%rbp),%eax
    2d0a:	3b 85 e8 83 df ff    	cmp    -0x207c18(%rbp),%eax
    2d10:	0f 8c 2f ff ff ff    	jl     2c45 <mayo_generic_m_calculate_PS+0x2d6>
    2d16:	83 85 d8 83 df ff 01 	addl   $0x1,-0x207c28(%rbp)
    2d1d:	8b 85 d8 83 df ff    	mov    -0x207c28(%rbp),%eax
    2d23:	3b 85 e8 83 df ff    	cmp    -0x207c18(%rbp),%eax
    2d29:	0f 8c 05 ff ff ff    	jl     2c34 <mayo_generic_m_calculate_PS+0x2c5>
    2d2f:	c7 85 e4 83 df ff 00 	movl   $0x0,-0x207c1c(%rbp)
    2d36:	00 00 00 
    2d39:	eb 5c                	jmp    2d97 <mayo_generic_m_calculate_PS+0x428>
    2d3b:	8b 85 e4 83 df ff    	mov    -0x207c1c(%rbp),%eax
    2d41:	0f af 85 ec 83 df ff 	imul   -0x207c14(%rbp),%eax
    2d48:	48 98                	cltq
    2d4a:	48 8d 14 c5 00 00 00 	lea    0x0(,%rax,8),%rdx
    2d51:	00 
    2d52:	48 8b 85 80 83 df ff 	mov    -0x207c80(%rbp),%rax
    2d59:	48 01 c2             	add    %rax,%rdx
    2d5c:	8b 85 e4 83 df ff    	mov    -0x207c1c(%rbp),%eax
    2d62:	0f af 85 ec 83 df ff 	imul   -0x207c14(%rbp),%eax
    2d69:	c1 e0 04             	shl    $0x4,%eax
    2d6c:	48 98                	cltq
    2d6e:	48 8d 0c c5 00 00 00 	lea    0x0(,%rax,8),%rcx
    2d75:	00 
    2d76:	48 8d 85 f0 83 df ff 	lea    -0x207c10(%rbp),%rax
    2d7d:	48 01 c1             	add    %rax,%rcx
    2d80:	8b 85 ec 83 df ff    	mov    -0x207c14(%rbp),%eax
    2d86:	48 89 ce             	mov    %rcx,%rsi
    2d89:	89 c7                	mov    %eax,%edi
    2d8b:	e8 a1 f3 ff ff       	call   2131 <m_vec_multiply_bins>
    2d90:	83 85 e4 83 df ff 01 	addl   $0x1,-0x207c1c(%rbp)
    2d97:	8b 85 e8 83 df ff    	mov    -0x207c18(%rbp),%eax
    2d9d:	0f af 45 18          	imul   0x18(%rbp),%eax
    2da1:	39 85 e4 83 df ff    	cmp    %eax,-0x207c1c(%rbp)
    2da7:	7c 92                	jl     2d3b <mayo_generic_m_calculate_PS+0x3cc>
    2da9:	90                   	nop
    2daa:	48 8b 45 f8          	mov    -0x8(%rbp),%rax
    2dae:	64 48 33 04 25 28 00 	xor    %fs:0x28,%rax
    2db5:	00 00 
    2db7:	74 05                	je     2dbe <mayo_generic_m_calculate_PS+0x44f>
    2db9:	e8 12 e4 ff ff       	call   11d0 <__stack_chk_fail@plt>
    2dbe:	c9                   	leave
    2dbf:	c3                   	ret

0000000000002dc0 <mayo_generic_m_calculate_SPS>:
    2dc0:	55                   	push   %rbp
    2dc1:	48 89 e5             	mov    %rsp,%rbp
    2dc4:	4c 8d 9c 24 00 80 fd 	lea    -0x28000(%rsp),%r11
    2dcb:	ff 
    2dcc:	48 81 ec 00 10 00 00 	sub    $0x1000,%rsp
    2dd3:	48 83 0c 24 00       	orq    $0x0,(%rsp)
    2dd8:	4c 39 dc             	cmp    %r11,%rsp
    2ddb:	75 ef                	jne    2dcc <mayo_generic_m_calculate_SPS+0xc>
    2ddd:	48 81 ec 60 08 00 00 	sub    $0x860,%rsp
    2de4:	48 89 bd c8 77 fd ff 	mov    %rdi,-0x28838(%rbp)
    2deb:	48 89 b5 c0 77 fd ff 	mov    %rsi,-0x28840(%rbp)
    2df2:	89 95 bc 77 fd ff    	mov    %edx,-0x28844(%rbp)
    2df8:	89 8d b8 77 fd ff    	mov    %ecx,-0x28848(%rbp)
    2dfe:	44 89 85 b4 77 fd ff 	mov    %r8d,-0x2884c(%rbp)
    2e05:	4c 89 8d a8 77 fd ff 	mov    %r9,-0x28858(%rbp)
    2e0c:	64 48 8b 04 25 28 00 	mov    %fs:0x28,%rax
    2e13:	00 00 
    2e15:	48 89 45 f8          	mov    %rax,-0x8(%rbp)
    2e19:	31 c0                	xor    %eax,%eax
    2e1b:	48 8d 85 f0 77 fd ff 	lea    -0x28810(%rbp),%rax
    2e22:	ba 00 88 02 00       	mov    $0x28800,%edx
    2e27:	be 00 00 00 00       	mov    $0x0,%esi
    2e2c:	48 89 c7             	mov    %rax,%rdi
    2e2f:	e8 cc e3 ff ff       	call   1200 <memset@plt>
    2e34:	8b 85 bc 77 fd ff    	mov    -0x28844(%rbp),%eax
    2e3a:	83 c0 0f             	add    $0xf,%eax
    2e3d:	8d 50 0f             	lea    0xf(%rax),%edx
    2e40:	85 c0                	test   %eax,%eax
    2e42:	0f 48 c2             	cmovs  %edx,%eax
    2e45:	c1 f8 04             	sar    $0x4,%eax
    2e48:	89 85 ec 77 fd ff    	mov    %eax,-0x28814(%rbp)
    2e4e:	c7 85 dc 77 fd ff 00 	movl   $0x0,-0x28824(%rbp)
    2e55:	00 00 00 
    2e58:	e9 f5 00 00 00       	jmp    2f52 <mayo_generic_m_calculate_SPS+0x192>
    2e5d:	c7 85 e0 77 fd ff 00 	movl   $0x0,-0x28820(%rbp)
    2e64:	00 00 00 
    2e67:	e9 cd 00 00 00       	jmp    2f39 <mayo_generic_m_calculate_SPS+0x179>
    2e6c:	c7 85 e4 77 fd ff 00 	movl   $0x0,-0x2881c(%rbp)
    2e73:	00 00 00 
    2e76:	e9 a5 00 00 00       	jmp    2f20 <mayo_generic_m_calculate_SPS+0x160>
    2e7b:	8b 85 dc 77 fd ff    	mov    -0x28824(%rbp),%eax
    2e81:	0f af 85 b8 77 fd ff 	imul   -0x28848(%rbp),%eax
    2e88:	8b 95 e4 77 fd ff    	mov    -0x2881c(%rbp),%edx
    2e8e:	01 d0                	add    %edx,%eax
    2e90:	c1 e0 04             	shl    $0x4,%eax
    2e93:	89 c2                	mov    %eax,%edx
    2e95:	8b 85 dc 77 fd ff    	mov    -0x28824(%rbp),%eax
    2e9b:	0f af 85 b4 77 fd ff 	imul   -0x2884c(%rbp),%eax
    2ea2:	8b 8d e0 77 fd ff    	mov    -0x28820(%rbp),%ecx
    2ea8:	01 c8                	add    %ecx,%eax
    2eaa:	48 98                	cltq
    2eac:	48 8b 8d c0 77 fd ff 	mov    -0x28840(%rbp),%rcx
    2eb3:	48 01 c8             	add    %rcx,%rax
    2eb6:	0f b6 00             	movzbl (%rax),%eax
    2eb9:	0f b6 c0             	movzbl %al,%eax
    2ebc:	01 d0                	add    %edx,%eax
    2ebe:	0f af 85 ec 77 fd ff 	imul   -0x28814(%rbp),%eax
    2ec5:	48 98                	cltq
    2ec7:	48 8d 14 c5 00 00 00 	lea    0x0(,%rax,8),%rdx
    2ece:	00 
    2ecf:	48 8d 85 f0 77 fd ff 	lea    -0x28810(%rbp),%rax
    2ed6:	48 01 c2             	add    %rax,%rdx
    2ed9:	8b 85 e0 77 fd ff    	mov    -0x28820(%rbp),%eax
    2edf:	0f af 85 b8 77 fd ff 	imul   -0x28848(%rbp),%eax
    2ee6:	8b 8d e4 77 fd ff    	mov    -0x2881c(%rbp),%ecx
    2eec:	01 c8                	add    %ecx,%eax
    2eee:	0f af 85 ec 77 fd ff 	imul   -0x28814(%rbp),%eax
    2ef5:	48 98                	cltq
    2ef7:	48 8d 0c c5 00 00 00 	lea    0x0(,%rax,8),%rcx
    2efe:	00 
    2eff:	48 8b 85 c8 77 fd ff 	mov    -0x28838(%rbp),%rax
    2f06:	48 01 c1             	add    %rax,%rcx
    2f09:	8b 85 ec 77 fd ff    	mov    -0x28814(%rbp),%eax
    2f0f:	48 89 ce             	mov    %rcx,%rsi
    2f12:	89 c7                	mov    %eax,%edi
    2f14:	e8 96 ef ff ff       	call   1eaf <m_vec_add>
    2f19:	83 85 e4 77 fd ff 01 	addl   $0x1,-0x2881c(%rbp)
    2f20:	8b 85 e4 77 fd ff    	mov    -0x2881c(%rbp),%eax
    2f26:	3b 85 b8 77 fd ff    	cmp    -0x28848(%rbp),%eax
    2f2c:	0f 8c 49 ff ff ff    	jl     2e7b <mayo_generic_m_calculate_SPS+0xbb>
    2f32:	83 85 e0 77 fd ff 01 	addl   $0x1,-0x28820(%rbp)
    2f39:	8b 85 e0 77 fd ff    	mov    -0x28820(%rbp),%eax
    2f3f:	3b 85 b4 77 fd ff    	cmp    -0x2884c(%rbp),%eax
    2f45:	0f 8c 21 ff ff ff    	jl     2e6c <mayo_generic_m_calculate_SPS+0xac>
    2f4b:	83 85 dc 77 fd ff 01 	addl   $0x1,-0x28824(%rbp)
    2f52:	8b 85 dc 77 fd ff    	mov    -0x28824(%rbp),%eax
    2f58:	3b 85 b8 77 fd ff    	cmp    -0x28848(%rbp),%eax
    2f5e:	0f 8c f9 fe ff ff    	jl     2e5d <mayo_generic_m_calculate_SPS+0x9d>
    2f64:	c7 85 e8 77 fd ff 00 	movl   $0x0,-0x28818(%rbp)
    2f6b:	00 00 00 
    2f6e:	eb 5c                	jmp    2fcc <mayo_generic_m_calculate_SPS+0x20c>
    2f70:	8b 85 e8 77 fd ff    	mov    -0x28818(%rbp),%eax
    2f76:	0f af 85 ec 77 fd ff 	imul   -0x28814(%rbp),%eax
    2f7d:	48 98                	cltq
    2f7f:	48 8d 14 c5 00 00 00 	lea    0x0(,%rax,8),%rdx
    2f86:	00 
    2f87:	48 8b 85 a8 77 fd ff 	mov    -0x28858(%rbp),%rax
    2f8e:	48 01 c2             	add    %rax,%rdx
    2f91:	8b 85 e8 77 fd ff    	mov    -0x28818(%rbp),%eax
    2f97:	0f af 85 ec 77 fd ff 	imul   -0x28814(%rbp),%eax
    2f9e:	c1 e0 04             	shl    $0x4,%eax
    2fa1:	48 98                	cltq
    2fa3:	48 8d 0c c5 00 00 00 	lea    0x0(,%rax,8),%rcx
    2faa:	00 
    2fab:	48 8d 85 f0 77 fd ff 	lea    -0x28810(%rbp),%rax
    2fb2:	48 01 c1             	add    %rax,%rcx
    2fb5:	8b 85 ec 77 fd ff    	mov    -0x28814(%rbp),%eax
    2fbb:	48 89 ce             	mov    %rcx,%rsi
    2fbe:	89 c7                	mov    %eax,%edi
    2fc0:	e8 6c f1 ff ff       	call   2131 <m_vec_multiply_bins>
    2fc5:	83 85 e8 77 fd ff 01 	addl   $0x1,-0x28818(%rbp)
    2fcc:	8b 85 b8 77 fd ff    	mov    -0x28848(%rbp),%eax
    2fd2:	0f af c0             	imul   %eax,%eax
    2fd5:	39 85 e8 77 fd ff    	cmp    %eax,-0x28818(%rbp)
    2fdb:	7c 93                	jl     2f70 <mayo_generic_m_calculate_SPS+0x1b0>
    2fdd:	90                   	nop
    2fde:	48 8b 45 f8          	mov    -0x8(%rbp),%rax
    2fe2:	64 48 33 04 25 28 00 	xor    %fs:0x28,%rax
    2fe9:	00 00 
    2feb:	74 05                	je     2ff2 <mayo_generic_m_calculate_SPS+0x232>
    2fed:	e8 de e1 ff ff       	call   11d0 <__stack_chk_fail@plt>
    2ff2:	c9                   	leave
    2ff3:	c3                   	ret

0000000000002ff4 <P1P1t_times_O>:
    2ff4:	55                   	push   %rbp
    2ff5:	48 89 e5             	mov    %rsp,%rbp
    2ff8:	48 83 ec 40          	sub    $0x40,%rsp
    2ffc:	48 89 7d d8          	mov    %rdi,-0x28(%rbp)
    3000:	48 89 75 d0          	mov    %rsi,-0x30(%rbp)
    3004:	48 89 55 c8          	mov    %rdx,-0x38(%rbp)
    3008:	48 89 4d c0          	mov    %rcx,-0x40(%rbp)
    300c:	48 8b 45 d8          	mov    -0x28(%rbp),%rax
    3010:	8b 40 08             	mov    0x8(%rax),%eax
    3013:	89 45 f4             	mov    %eax,-0xc(%rbp)
    3016:	48 8b 45 d8          	mov    -0x28(%rbp),%rax
    301a:	8b 50 04             	mov    0x4(%rax),%edx
    301d:	48 8b 45 d8          	mov    -0x28(%rbp),%rax
    3021:	8b 40 08             	mov    0x8(%rax),%eax
    3024:	29 c2                	sub    %eax,%edx
    3026:	89 d0                	mov    %edx,%eax
    3028:	89 45 f8             	mov    %eax,-0x8(%rbp)
    302b:	48 8b 45 d8          	mov    -0x28(%rbp),%rax
    302f:	8b 40 5c             	mov    0x5c(%rax),%eax
    3032:	89 45 fc             	mov    %eax,-0x4(%rbp)
    3035:	c7 45 e4 00 00 00 00 	movl   $0x0,-0x1c(%rbp)
    303c:	c7 45 e8 00 00 00 00 	movl   $0x0,-0x18(%rbp)
    3043:	e9 14 01 00 00       	jmp    315c <P1P1t_times_O+0x168>
    3048:	8b 45 e8             	mov    -0x18(%rbp),%eax
    304b:	89 45 ec             	mov    %eax,-0x14(%rbp)
    304e:	e9 f9 00 00 00       	jmp    314c <P1P1t_times_O+0x158>
    3053:	8b 45 ec             	mov    -0x14(%rbp),%eax
    3056:	3b 45 e8             	cmp    -0x18(%rbp),%eax
    3059:	75 09                	jne    3064 <P1P1t_times_O+0x70>
    305b:	83 45 e4 01          	addl   $0x1,-0x1c(%rbp)
    305f:	e9 e4 00 00 00       	jmp    3148 <P1P1t_times_O+0x154>
    3064:	c7 45 f0 00 00 00 00 	movl   $0x0,-0x10(%rbp)
    306b:	e9 c8 00 00 00       	jmp    3138 <P1P1t_times_O+0x144>
    3070:	8b 45 e8             	mov    -0x18(%rbp),%eax
    3073:	0f af 45 f4          	imul   -0xc(%rbp),%eax
    3077:	8b 55 f0             	mov    -0x10(%rbp),%edx
    307a:	01 d0                	add    %edx,%eax
    307c:	0f af 45 fc          	imul   -0x4(%rbp),%eax
    3080:	48 98                	cltq
    3082:	48 8d 14 c5 00 00 00 	lea    0x0(,%rax,8),%rdx
    3089:	00 
    308a:	48 8b 45 c0          	mov    -0x40(%rbp),%rax
    308e:	48 01 c2             	add    %rax,%rdx
    3091:	8b 45 ec             	mov    -0x14(%rbp),%eax
    3094:	0f af 45 f4          	imul   -0xc(%rbp),%eax
    3098:	8b 4d f0             	mov    -0x10(%rbp),%ecx
    309b:	01 c8                	add    %ecx,%eax
    309d:	48 98                	cltq
    309f:	48 8b 4d c8          	mov    -0x38(%rbp),%rcx
    30a3:	48 01 c8             	add    %rcx,%rax
    30a6:	0f b6 00             	movzbl (%rax),%eax
    30a9:	0f b6 c0             	movzbl %al,%eax
    30ac:	8b 4d fc             	mov    -0x4(%rbp),%ecx
    30af:	0f af 4d e4          	imul   -0x1c(%rbp),%ecx
    30b3:	48 63 c9             	movslq %ecx,%rcx
    30b6:	48 8d 34 cd 00 00 00 	lea    0x0(,%rcx,8),%rsi
    30bd:	00 
    30be:	48 8b 4d d0          	mov    -0x30(%rbp),%rcx
    30c2:	48 01 ce             	add    %rcx,%rsi
    30c5:	8b 7d fc             	mov    -0x4(%rbp),%edi
    30c8:	48 89 d1             	mov    %rdx,%rcx
    30cb:	89 c2                	mov    %eax,%edx
    30cd:	e8 4d ee ff ff       	call   1f1f <m_vec_mul_add>
    30d2:	8b 45 ec             	mov    -0x14(%rbp),%eax
    30d5:	0f af 45 f4          	imul   -0xc(%rbp),%eax
    30d9:	8b 55 f0             	mov    -0x10(%rbp),%edx
    30dc:	01 d0                	add    %edx,%eax
    30de:	0f af 45 fc          	imul   -0x4(%rbp),%eax
    30e2:	48 98                	cltq
    30e4:	48 8d 14 c5 00 00 00 	lea    0x0(,%rax,8),%rdx
    30eb:	00 
    30ec:	48 8b 45 c0          	mov    -0x40(%rbp),%rax
    30f0:	48 01 c2             	add    %rax,%rdx
    30f3:	8b 45 e8             	mov    -0x18(%rbp),%eax
    30f6:	0f af 45 f4          	imul   -0xc(%rbp),%eax
    30fa:	8b 4d f0             	mov    -0x10(%rbp),%ecx
    30fd:	01 c8                	add    %ecx,%eax
    30ff:	48 98                	cltq
    3101:	48 8b 4d c8          	mov    -0x38(%rbp),%rcx
    3105:	48 01 c8             	add    %rcx,%rax
    3108:	0f b6 00             	movzbl (%rax),%eax
    310b:	0f b6 c0             	movzbl %al,%eax
    310e:	8b 4d fc             	mov    -0x4(%rbp),%ecx
    3111:	0f af 4d e4          	imul   -0x1c(%rbp),%ecx
    3115:	48 63 c9             	movslq %ecx,%rcx
    3118:	48 8d 34 cd 00 00 00 	lea    0x0(,%rcx,8),%rsi
    311f:	00 
    3120:	48 8b 4d d0          	mov    -0x30(%rbp),%rcx
    3124:	48 01 ce             	add    %rcx,%rsi
    3127:	8b 7d fc             	mov    -0x4(%rbp),%edi
    312a:	48 89 d1             	mov    %rdx,%rcx
    312d:	89 c2                	mov    %eax,%edx
    312f:	e8 eb ed ff ff       	call   1f1f <m_vec_mul_add>
    3134:	83 45 f0 01          	addl   $0x1,-0x10(%rbp)
    3138:	8b 45 f0             	mov    -0x10(%rbp),%eax
    313b:	3b 45 f4             	cmp    -0xc(%rbp),%eax
    313e:	0f 8c 2c ff ff ff    	jl     3070 <P1P1t_times_O+0x7c>
    3144:	83 45 e4 01          	addl   $0x1,-0x1c(%rbp)
    3148:	83 45 ec 01          	addl   $0x1,-0x14(%rbp)
    314c:	8b 45 ec             	mov    -0x14(%rbp),%eax
    314f:	3b 45 f8             	cmp    -0x8(%rbp),%eax
    3152:	0f 8c fb fe ff ff    	jl     3053 <P1P1t_times_O+0x5f>
    3158:	83 45 e8 01          	addl   $0x1,-0x18(%rbp)
    315c:	8b 45 e8             	mov    -0x18(%rbp),%eax
    315f:	3b 45 f8             	cmp    -0x8(%rbp),%eax
    3162:	0f 8c e0 fe ff ff    	jl     3048 <P1P1t_times_O+0x54>
    3168:	90                   	nop
    3169:	90                   	nop
    316a:	c9                   	leave
    316b:	c3                   	ret

000000000000316c <compute_M_and_VPV>:
    316c:	55                   	push   %rbp
    316d:	48 89 e5             	mov    %rsp,%rbp
    3170:	4c 8d 9c 24 00 30 fe 	lea    -0x1d000(%rsp),%r11
    3177:	ff 
    3178:	48 81 ec 00 10 00 00 	sub    $0x1000,%rsp
    317f:	48 83 0c 24 00       	orq    $0x0,(%rsp)
    3184:	4c 39 dc             	cmp    %r11,%rsp
    3187:	75 ef                	jne    3178 <compute_M_and_VPV+0xc>
    3189:	48 81 ec 90 0f 00 00 	sub    $0xf90,%rsp
    3190:	48 89 bd 98 20 fe ff 	mov    %rdi,-0x1df68(%rbp)
    3197:	48 89 b5 90 20 fe ff 	mov    %rsi,-0x1df70(%rbp)
    319e:	48 89 95 88 20 fe ff 	mov    %rdx,-0x1df78(%rbp)
    31a5:	48 89 8d 80 20 fe ff 	mov    %rcx,-0x1df80(%rbp)
    31ac:	4c 89 85 78 20 fe ff 	mov    %r8,-0x1df88(%rbp)
    31b3:	4c 89 8d 70 20 fe ff 	mov    %r9,-0x1df90(%rbp)
    31ba:	64 48 8b 04 25 28 00 	mov    %fs:0x28,%rax
    31c1:	00 00 
    31c3:	48 89 45 f8          	mov    %rax,-0x8(%rbp)
    31c7:	31 c0                	xor    %eax,%eax
    31c9:	48 8b 85 98 20 fe ff 	mov    -0x1df68(%rbp),%rax
    31d0:	8b 40 0c             	mov    0xc(%rax),%eax
    31d3:	89 85 a4 20 fe ff    	mov    %eax,-0x1df5c(%rbp)
    31d9:	48 8b 85 98 20 fe ff 	mov    -0x1df68(%rbp),%rax
    31e0:	8b 50 04             	mov    0x4(%rax),%edx
    31e3:	48 8b 85 98 20 fe ff 	mov    -0x1df68(%rbp),%rax
    31ea:	8b 40 08             	mov    0x8(%rax),%eax
    31ed:	29 c2                	sub    %eax,%edx
    31ef:	89 d0                	mov    %edx,%eax
    31f1:	89 85 a8 20 fe ff    	mov    %eax,-0x1df58(%rbp)
    31f7:	48 8b 85 98 20 fe ff 	mov    -0x1df68(%rbp),%rax
    31fe:	8b 40 08             	mov    0x8(%rax),%eax
    3201:	89 85 ac 20 fe ff    	mov    %eax,-0x1df54(%rbp)
    3207:	48 8b 85 98 20 fe ff 	mov    -0x1df68(%rbp),%rax
    320e:	8b 40 5c             	mov    0x5c(%rax),%eax
    3211:	44 8b 8d a8 20 fe ff 	mov    -0x1df58(%rbp),%r9d
    3218:	44 8b 85 a4 20 fe ff 	mov    -0x1df5c(%rbp),%r8d
    321f:	48 8b 8d 78 20 fe ff 	mov    -0x1df88(%rbp),%rcx
    3226:	48 8b 95 88 20 fe ff 	mov    -0x1df78(%rbp),%rdx
    322d:	48 8b b5 90 20 fe ff 	mov    -0x1df70(%rbp),%rsi
    3234:	8b bd ac 20 fe ff    	mov    -0x1df54(%rbp),%edi
    323a:	57                   	push   %rdi
    323b:	89 c7                	mov    %eax,%edi
    323d:	e8 80 f5 ff ff       	call   27c2 <mul_add_mat_x_m_mat>
    3242:	48 83 c4 08          	add    $0x8,%rsp
    3246:	48 8d 85 b0 20 fe ff 	lea    -0x1df50(%rbp),%rax
    324d:	ba 40 df 01 00       	mov    $0x1df40,%edx
    3252:	be 00 00 00 00       	mov    $0x0,%esi
    3257:	48 89 c7             	mov    %rax,%rdi
    325a:	e8 a1 df ff ff       	call   1200 <memset@plt>
    325f:	48 8d 85 b0 20 fe ff 	lea    -0x1df50(%rbp),%rax
    3266:	48 8b 95 90 20 fe ff 	mov    -0x1df70(%rbp),%rdx
    326d:	48 8b b5 80 20 fe ff 	mov    -0x1df80(%rbp),%rsi
    3274:	48 8b bd 98 20 fe ff 	mov    -0x1df68(%rbp),%rdi
    327b:	48 89 c1             	mov    %rax,%rcx
    327e:	e8 83 f6 ff ff       	call   2906 <P1_times_Vt>
    3283:	48 8b 85 98 20 fe ff 	mov    -0x1df68(%rbp),%rax
    328a:	8b 78 5c             	mov    0x5c(%rax),%edi
    328d:	44 8b 8d a8 20 fe ff 	mov    -0x1df58(%rbp),%r9d
    3294:	44 8b 85 a4 20 fe ff 	mov    -0x1df5c(%rbp),%r8d
    329b:	48 8b 95 70 20 fe ff 	mov    -0x1df90(%rbp),%rdx
    32a2:	48 8d 85 b0 20 fe ff 	lea    -0x1df50(%rbp),%rax
    32a9:	48 8b b5 90 20 fe ff 	mov    -0x1df70(%rbp),%rsi
    32b0:	48 83 ec 08          	sub    $0x8,%rsp
    32b4:	8b 8d a4 20 fe ff    	mov    -0x1df5c(%rbp),%ecx
    32ba:	51                   	push   %rcx
    32bb:	48 89 d1             	mov    %rdx,%rcx
    32be:	48 89 c2             	mov    %rax,%rdx
    32c1:	e8 fc f4 ff ff       	call   27c2 <mul_add_mat_x_m_mat>
    32c6:	48 83 c4 10          	add    $0x10,%rsp
    32ca:	90                   	nop
    32cb:	48 8b 45 f8          	mov    -0x8(%rbp),%rax
    32cf:	64 48 33 04 25 28 00 	xor    %fs:0x28,%rax
    32d6:	00 00 
    32d8:	74 05                	je     32df <compute_M_and_VPV+0x173>
    32da:	e8 f1 de ff ff       	call   11d0 <__stack_chk_fail@plt>
    32df:	c9                   	leave
    32e0:	c3                   	ret

00000000000032e1 <compute_P3>:
    32e1:	55                   	push   %rbp
    32e2:	48 89 e5             	mov    %rsp,%rbp
    32e5:	48 83 ec 38          	sub    $0x38,%rsp
    32e9:	48 89 7d e8          	mov    %rdi,-0x18(%rbp)
    32ed:	48 89 75 e0          	mov    %rsi,-0x20(%rbp)
    32f1:	48 89 55 d8          	mov    %rdx,-0x28(%rbp)
    32f5:	48 89 4d d0          	mov    %rcx,-0x30(%rbp)
    32f9:	4c 89 45 c8          	mov    %r8,-0x38(%rbp)
    32fd:	48 8b 45 e8          	mov    -0x18(%rbp),%rax
    3301:	8b 40 5c             	mov    0x5c(%rax),%eax
    3304:	89 45 f4             	mov    %eax,-0xc(%rbp)
    3307:	48 8b 45 e8          	mov    -0x18(%rbp),%rax
    330b:	8b 50 04             	mov    0x4(%rax),%edx
    330e:	48 8b 45 e8          	mov    -0x18(%rbp),%rax
    3312:	8b 40 08             	mov    0x8(%rax),%eax
    3315:	29 c2                	sub    %eax,%edx
    3317:	89 d0                	mov    %edx,%eax
    3319:	89 45 f8             	mov    %eax,-0x8(%rbp)
    331c:	48 8b 45 e8          	mov    -0x18(%rbp),%rax
    3320:	8b 40 08             	mov    0x8(%rax),%eax
    3323:	89 45 fc             	mov    %eax,-0x4(%rbp)
    3326:	48 8b 4d d8          	mov    -0x28(%rbp),%rcx
    332a:	48 8b 55 d0          	mov    -0x30(%rbp),%rdx
    332e:	48 8b 75 e0          	mov    -0x20(%rbp),%rsi
    3332:	48 8b 45 e8          	mov    -0x18(%rbp),%rax
    3336:	48 89 c7             	mov    %rax,%rdi
    3339:	e8 5f f5 ff ff       	call   289d <P1_times_O>
    333e:	44 8b 4d fc          	mov    -0x4(%rbp),%r9d
    3342:	44 8b 45 f8          	mov    -0x8(%rbp),%r8d
    3346:	48 8b 4d c8          	mov    -0x38(%rbp),%rcx
    334a:	48 8b 55 d8          	mov    -0x28(%rbp),%rdx
    334e:	48 8b 75 d0          	mov    -0x30(%rbp),%rsi
    3352:	8b 45 f4             	mov    -0xc(%rbp),%eax
    3355:	8b 7d fc             	mov    -0x4(%rbp),%edi
    3358:	57                   	push   %rdi
    3359:	89 c7                	mov    %eax,%edi
    335b:	e8 87 f3 ff ff       	call   26e7 <mul_add_mat_trans_x_m_mat>
    3360:	48 83 c4 08          	add    $0x8,%rsp
    3364:	90                   	nop
    3365:	c9                   	leave
    3366:	c3                   	ret

0000000000003367 <m_calculate_PS_SPS>:
    3367:	55                   	push   %rbp
    3368:	48 89 e5             	mov    %rsp,%rbp
    336b:	4c 8d 9c 24 00 00 fe 	lea    -0x20000(%rsp),%r11
    3372:	ff 
    3373:	48 81 ec 00 10 00 00 	sub    $0x1000,%rsp
    337a:	48 83 0c 24 00       	orq    $0x0,(%rsp)
    337f:	4c 39 dc             	cmp    %r11,%rsp
    3382:	75 ef                	jne    3373 <m_calculate_PS_SPS+0xc>
    3384:	48 81 ec 00 08 00 00 	sub    $0x800,%rsp
    338b:	48 89 bd 28 f8 fd ff 	mov    %rdi,-0x207d8(%rbp)
    3392:	48 89 b5 20 f8 fd ff 	mov    %rsi,-0x207e0(%rbp)
    3399:	48 89 95 18 f8 fd ff 	mov    %rdx,-0x207e8(%rbp)
    33a0:	48 89 8d 10 f8 fd ff 	mov    %rcx,-0x207f0(%rbp)
    33a7:	4c 89 85 08 f8 fd ff 	mov    %r8,-0x207f8(%rbp)
    33ae:	4c 89 8d 00 f8 fd ff 	mov    %r9,-0x20800(%rbp)
    33b5:	64 48 8b 04 25 28 00 	mov    %fs:0x28,%rax
    33bc:	00 00 
    33be:	48 89 45 f8          	mov    %rax,-0x8(%rbp)
    33c2:	31 c0                	xor    %eax,%eax
    33c4:	48 8d 85 30 f8 fd ff 	lea    -0x207d0(%rbp),%rax
    33cb:	ba c0 07 02 00       	mov    $0x207c0,%edx
    33d0:	be 00 00 00 00       	mov    $0x0,%esi
    33d5:	48 89 c7             	mov    %rax,%rdi
    33d8:	e8 23 de ff ff       	call   1200 <memset@plt>
    33dd:	48 8b 85 28 f8 fd ff 	mov    -0x207d8(%rbp),%rax
    33e4:	44 8b 48 0c          	mov    0xc(%rax),%r9d
    33e8:	48 8b 85 28 f8 fd ff 	mov    -0x207d8(%rbp),%rax
    33ef:	44 8b 40 08          	mov    0x8(%rax),%r8d
    33f3:	48 8b 85 28 f8 fd ff 	mov    -0x207d8(%rbp),%rax
    33fa:	8b 50 04             	mov    0x4(%rax),%edx
    33fd:	48 8b 85 28 f8 fd ff 	mov    -0x207d8(%rbp),%rax
    3404:	8b 40 08             	mov    0x8(%rax),%eax
    3407:	29 c2                	sub    %eax,%edx
    3409:	41 89 d3             	mov    %edx,%r11d
    340c:	48 8b 85 28 f8 fd ff 	mov    -0x207d8(%rbp),%rax
    3413:	44 8b 10             	mov    (%rax),%r10d
    3416:	48 8b 8d 08 f8 fd ff 	mov    -0x207f8(%rbp),%rcx
    341d:	48 8b 95 10 f8 fd ff 	mov    -0x207f0(%rbp),%rdx
    3424:	48 8b b5 18 f8 fd ff 	mov    -0x207e8(%rbp),%rsi
    342b:	48 8b 85 20 f8 fd ff 	mov    -0x207e0(%rbp),%rax
    3432:	48 83 ec 08          	sub    $0x8,%rsp
    3436:	48 8d bd 30 f8 fd ff 	lea    -0x207d0(%rbp),%rdi
    343d:	57                   	push   %rdi
    343e:	41 51                	push   %r9
    3440:	41 50                	push   %r8
    3442:	45 89 d9             	mov    %r11d,%r9d
    3445:	45 89 d0             	mov    %r10d,%r8d
    3448:	48 89 c7             	mov    %rax,%rdi
    344b:	e8 1f f5 ff ff       	call   296f <mayo_generic_m_calculate_PS>
    3450:	48 83 c4 20          	add    $0x20,%rsp
    3454:	48 8b 85 28 f8 fd ff 	mov    -0x207d8(%rbp),%rax
    345b:	8b 78 04             	mov    0x4(%rax),%edi
    345e:	48 8b 85 28 f8 fd ff 	mov    -0x207d8(%rbp),%rax
    3465:	8b 48 0c             	mov    0xc(%rax),%ecx
    3468:	48 8b 85 28 f8 fd ff 	mov    -0x207d8(%rbp),%rax
    346f:	8b 10                	mov    (%rax),%edx
    3471:	4c 8b 85 00 f8 fd ff 	mov    -0x20800(%rbp),%r8
    3478:	48 8b b5 08 f8 fd ff 	mov    -0x207f8(%rbp),%rsi
    347f:	48 8d 85 30 f8 fd ff 	lea    -0x207d0(%rbp),%rax
    3486:	4d 89 c1             	mov    %r8,%r9
    3489:	41 89 f8             	mov    %edi,%r8d
    348c:	48 89 c7             	mov    %rax,%rdi
    348f:	e8 2c f9 ff ff       	call   2dc0 <mayo_generic_m_calculate_SPS>
    3494:	90                   	nop
    3495:	48 8b 45 f8          	mov    -0x8(%rbp),%rax
    3499:	64 48 33 04 25 28 00 	xor    %fs:0x28,%rax
    34a0:	00 00 
    34a2:	74 05                	je     34a9 <m_calculate_PS_SPS+0x142>
    34a4:	e8 27 dd ff ff       	call   11d0 <__stack_chk_fail@plt>
    34a9:	c9                   	leave
    34aa:	c3                   	ret

00000000000034ab <decode>:
    34ab:	f3 0f 1e fa          	endbr64
    34af:	55                   	push   %rbp
    34b0:	48 89 e5             	mov    %rsp,%rbp
    34b3:	48 89 7d e8          	mov    %rdi,-0x18(%rbp)
    34b7:	48 89 75 e0          	mov    %rsi,-0x20(%rbp)
    34bb:	89 55 dc             	mov    %edx,-0x24(%rbp)
    34be:	c7 45 fc 00 00 00 00 	movl   $0x0,-0x4(%rbp)
    34c5:	eb 44                	jmp    350b <decode+0x60>
    34c7:	8b 45 fc             	mov    -0x4(%rbp),%eax
    34ca:	48 98                	cltq
    34cc:	48 8b 55 e8          	mov    -0x18(%rbp),%rdx
    34d0:	48 01 d0             	add    %rdx,%rax
    34d3:	0f b6 10             	movzbl (%rax),%edx
    34d6:	48 8b 45 e0          	mov    -0x20(%rbp),%rax
    34da:	48 8d 48 01          	lea    0x1(%rax),%rcx
    34de:	48 89 4d e0          	mov    %rcx,-0x20(%rbp)
    34e2:	83 e2 0f             	and    $0xf,%edx
    34e5:	88 10                	mov    %dl,(%rax)
    34e7:	8b 45 fc             	mov    -0x4(%rbp),%eax
    34ea:	48 98                	cltq
    34ec:	48 8b 55 e8          	mov    -0x18(%rbp),%rdx
    34f0:	48 01 d0             	add    %rdx,%rax
    34f3:	0f b6 10             	movzbl (%rax),%edx
    34f6:	48 8b 45 e0          	mov    -0x20(%rbp),%rax
    34fa:	48 8d 48 01          	lea    0x1(%rax),%rcx
    34fe:	48 89 4d e0          	mov    %rcx,-0x20(%rbp)
    3502:	c0 ea 04             	shr    $0x4,%dl
    3505:	88 10                	mov    %dl,(%rax)
    3507:	83 45 fc 01          	addl   $0x1,-0x4(%rbp)
    350b:	8b 45 dc             	mov    -0x24(%rbp),%eax
    350e:	89 c2                	mov    %eax,%edx
    3510:	c1 ea 1f             	shr    $0x1f,%edx
    3513:	01 d0                	add    %edx,%eax
    3515:	d1 f8                	sar    $1,%eax
    3517:	39 45 fc             	cmp    %eax,-0x4(%rbp)
    351a:	7c ab                	jl     34c7 <decode+0x1c>
    351c:	8b 55 dc             	mov    -0x24(%rbp),%edx
    351f:	89 d0                	mov    %edx,%eax
    3521:	c1 f8 1f             	sar    $0x1f,%eax
    3524:	c1 e8 1f             	shr    $0x1f,%eax
    3527:	01 c2                	add    %eax,%edx
    3529:	83 e2 01             	and    $0x1,%edx
    352c:	29 c2                	sub    %eax,%edx
    352e:	89 d0                	mov    %edx,%eax
    3530:	83 f8 01             	cmp    $0x1,%eax
    3533:	75 20                	jne    3555 <decode+0xaa>
    3535:	8b 45 fc             	mov    -0x4(%rbp),%eax
    3538:	48 98                	cltq
    353a:	48 8b 55 e8          	mov    -0x18(%rbp),%rdx
    353e:	48 01 d0             	add    %rdx,%rax
    3541:	0f b6 10             	movzbl (%rax),%edx
    3544:	48 8b 45 e0          	mov    -0x20(%rbp),%rax
    3548:	48 8d 48 01          	lea    0x1(%rax),%rcx
    354c:	48 89 4d e0          	mov    %rcx,-0x20(%rbp)
    3550:	83 e2 0f             	and    $0xf,%edx
    3553:	88 10                	mov    %dl,(%rax)
    3555:	90                   	nop
    3556:	5d                   	pop    %rbp
    3557:	c3                   	ret

0000000000003558 <encode>:
    3558:	f3 0f 1e fa          	endbr64
    355c:	55                   	push   %rbp
    355d:	48 89 e5             	mov    %rsp,%rbp
    3560:	48 89 7d e8          	mov    %rdi,-0x18(%rbp)
    3564:	48 89 75 e0          	mov    %rsi,-0x20(%rbp)
    3568:	89 55 dc             	mov    %edx,-0x24(%rbp)
    356b:	c7 45 fc 00 00 00 00 	movl   $0x0,-0x4(%rbp)
    3572:	eb 37                	jmp    35ab <encode+0x53>
    3574:	48 8b 45 e8          	mov    -0x18(%rbp),%rax
    3578:	0f b6 00             	movzbl (%rax),%eax
    357b:	89 c2                	mov    %eax,%edx
    357d:	48 8b 45 e8          	mov    -0x18(%rbp),%rax
    3581:	48 83 c0 01          	add    $0x1,%rax
    3585:	0f b6 00             	movzbl (%rax),%eax
    3588:	0f b6 c0             	movzbl %al,%eax
    358b:	c1 e0 04             	shl    $0x4,%eax
    358e:	89 d1                	mov    %edx,%ecx
    3590:	09 c1                	or     %eax,%ecx
    3592:	8b 45 fc             	mov    -0x4(%rbp),%eax
    3595:	48 98                	cltq
    3597:	48 8b 55 e0          	mov    -0x20(%rbp),%rdx
    359b:	48 01 d0             	add    %rdx,%rax
    359e:	89 ca                	mov    %ecx,%edx
    35a0:	88 10                	mov    %dl,(%rax)
    35a2:	83 45 fc 01          	addl   $0x1,-0x4(%rbp)
    35a6:	48 83 45 e8 02       	addq   $0x2,-0x18(%rbp)
    35ab:	8b 45 dc             	mov    -0x24(%rbp),%eax
    35ae:	89 c2                	mov    %eax,%edx
    35b0:	c1 ea 1f             	shr    $0x1f,%edx
    35b3:	01 d0                	add    %edx,%eax
    35b5:	d1 f8                	sar    $1,%eax
    35b7:	39 45 fc             	cmp    %eax,-0x4(%rbp)
    35ba:	7c b8                	jl     3574 <encode+0x1c>
    35bc:	8b 55 dc             	mov    -0x24(%rbp),%edx
    35bf:	89 d0                	mov    %edx,%eax
    35c1:	c1 f8 1f             	sar    $0x1f,%eax
    35c4:	c1 e8 1f             	shr    $0x1f,%eax
    35c7:	01 c2                	add    %eax,%edx
    35c9:	83 e2 01             	and    $0x1,%edx
    35cc:	29 c2                	sub    %eax,%edx
    35ce:	89 d0                	mov    %edx,%eax
    35d0:	83 f8 01             	cmp    $0x1,%eax
    35d3:	75 15                	jne    35ea <encode+0x92>
    35d5:	8b 45 fc             	mov    -0x4(%rbp),%eax
    35d8:	48 98                	cltq
    35da:	48 8b 55 e0          	mov    -0x20(%rbp),%rdx
    35de:	48 01 c2             	add    %rax,%rdx
    35e1:	48 8b 45 e8          	mov    -0x18(%rbp),%rax
    35e5:	0f b6 00             	movzbl (%rax),%eax
    35e8:	88 02                	mov    %al,(%rdx)
    35ea:	90                   	nop
    35eb:	5d                   	pop    %rbp
    35ec:	c3                   	ret

00000000000035ed <compute_rhs>:
    35ed:	f3 0f 1e fa          	endbr64
    35f1:	55                   	push   %rbp
    35f2:	48 89 e5             	mov    %rsp,%rbp
    35f5:	48 81 ec c0 00 00 00 	sub    $0xc0,%rsp
    35fc:	48 89 bd 58 ff ff ff 	mov    %rdi,-0xa8(%rbp)
    3603:	48 89 b5 50 ff ff ff 	mov    %rsi,-0xb0(%rbp)
    360a:	48 89 95 48 ff ff ff 	mov    %rdx,-0xb8(%rbp)
    3611:	48 89 8d 40 ff ff ff 	mov    %rcx,-0xc0(%rbp)
    3618:	64 48 8b 04 25 28 00 	mov    %fs:0x28,%rax
    361f:	00 00 
    3621:	48 89 45 f8          	mov    %rax,-0x8(%rbp)
    3625:	31 c0                	xor    %eax,%eax
    3627:	48 8b 85 58 ff ff ff 	mov    -0xa8(%rbp),%rax
    362e:	8b 00                	mov    (%rax),%eax
    3630:	8d 50 ff             	lea    -0x1(%rax),%edx
    3633:	89 d0                	mov    %edx,%eax
    3635:	c1 f8 1f             	sar    $0x1f,%eax
    3638:	c1 e8 1c             	shr    $0x1c,%eax
    363b:	01 c2                	add    %eax,%edx
    363d:	83 e2 0f             	and    $0xf,%edx
    3640:	29 c2                	sub    %eax,%edx
    3642:	89 d0                	mov    %edx,%eax
    3644:	c1 e0 02             	shl    $0x2,%eax
    3647:	48 98                	cltq
    3649:	48 89 45 90          	mov    %rax,-0x70(%rbp)
    364d:	48 8b 85 58 ff ff ff 	mov    -0xa8(%rbp),%rax
    3654:	8b 40 5c             	mov    0x5c(%rax),%eax
    3657:	48 98                	cltq
    3659:	48 89 45 98          	mov    %rax,-0x68(%rbp)
    365d:	48 8b 85 58 ff ff ff 	mov    -0xa8(%rbp),%rax
    3664:	8b 00                	mov    (%rax),%eax
    3666:	83 e0 0f             	and    $0xf,%eax
    3669:	85 c0                	test   %eax,%eax
    366b:	0f 84 b3 00 00 00    	je     3724 <compute_rhs+0x137>
    3671:	48 c7 45 a0 01 00 00 	movq   $0x1,-0x60(%rbp)
    3678:	00 
    3679:	48 8b 85 58 ff ff ff 	mov    -0xa8(%rbp),%rax
    3680:	8b 10                	mov    (%rax),%edx
    3682:	89 d0                	mov    %edx,%eax
    3684:	c1 f8 1f             	sar    $0x1f,%eax
    3687:	c1 e8 1c             	shr    $0x1c,%eax
    368a:	01 c2                	add    %eax,%edx
    368c:	83 e2 0f             	and    $0xf,%edx
    368f:	29 c2                	sub    %eax,%edx
    3691:	89 d0                	mov    %edx,%eax
    3693:	c1 e0 02             	shl    $0x2,%eax
    3696:	89 c1                	mov    %eax,%ecx
    3698:	48 d3 65 a0          	shlq   %cl,-0x60(%rbp)
    369c:	48 83 6d a0 01       	subq   $0x1,-0x60(%rbp)
    36a1:	c7 85 70 ff ff ff 00 	movl   $0x0,-0x90(%rbp)
    36a8:	00 00 00 
    36ab:	eb 58                	jmp    3705 <compute_rhs+0x118>
    36ad:	8b 85 70 ff ff ff    	mov    -0x90(%rbp),%eax
    36b3:	48 98                	cltq
    36b5:	48 83 c0 01          	add    $0x1,%rax
    36b9:	48 0f af 45 98       	imul   -0x68(%rbp),%rax
    36be:	48 c1 e0 03          	shl    $0x3,%rax
    36c2:	48 8d 50 f8          	lea    -0x8(%rax),%rdx
    36c6:	48 8b 85 50 ff ff ff 	mov    -0xb0(%rbp),%rax
    36cd:	48 01 d0             	add    %rdx,%rax
    36d0:	48 8b 00             	mov    (%rax),%rax
    36d3:	8b 95 70 ff ff ff    	mov    -0x90(%rbp),%edx
    36d9:	48 63 d2             	movslq %edx,%rdx
    36dc:	48 83 c2 01          	add    $0x1,%rdx
    36e0:	48 0f af 55 98       	imul   -0x68(%rbp),%rdx
    36e5:	48 c1 e2 03          	shl    $0x3,%rdx
    36e9:	48 8d 4a f8          	lea    -0x8(%rdx),%rcx
    36ed:	48 8b 95 50 ff ff ff 	mov    -0xb0(%rbp),%rdx
    36f4:	48 01 ca             	add    %rcx,%rdx
    36f7:	48 23 45 a0          	and    -0x60(%rbp),%rax
    36fb:	48 89 02             	mov    %rax,(%rdx)
    36fe:	83 85 70 ff ff ff 01 	addl   $0x1,-0x90(%rbp)
    3705:	48 8b 85 58 ff ff ff 	mov    -0xa8(%rbp),%rax
    370c:	8b 50 0c             	mov    0xc(%rax),%edx
    370f:	48 8b 85 58 ff ff ff 	mov    -0xa8(%rbp),%rax
    3716:	8b 40 0c             	mov    0xc(%rax),%eax
    3719:	0f af c2             	imul   %edx,%eax
    371c:	39 85 70 ff ff ff    	cmp    %eax,-0x90(%rbp)
    3722:	7c 89                	jl     36ad <compute_rhs+0xc0>
    3724:	48 c7 45 b0 00 00 00 	movq   $0x0,-0x50(%rbp)
    372b:	00 
    372c:	48 c7 45 b8 00 00 00 	movq   $0x0,-0x48(%rbp)
    3733:	00 
    3734:	48 c7 45 c0 00 00 00 	movq   $0x0,-0x40(%rbp)
    373b:	00 
    373c:	48 c7 45 c8 00 00 00 	movq   $0x0,-0x38(%rbp)
    3743:	00 
    3744:	48 c7 45 d0 00 00 00 	movq   $0x0,-0x30(%rbp)
    374b:	00 
    374c:	48 c7 45 d8 00 00 00 	movq   $0x0,-0x28(%rbp)
    3753:	00 
    3754:	48 c7 45 e0 00 00 00 	movq   $0x0,-0x20(%rbp)
    375b:	00 
    375c:	48 c7 45 e8 00 00 00 	movq   $0x0,-0x18(%rbp)
    3763:	00 
    3764:	48 c7 45 f0 00 00 00 	movq   $0x0,-0x10(%rbp)
    376b:	00 
    376c:	48 8d 45 b0          	lea    -0x50(%rbp),%rax
    3770:	48 89 45 a8          	mov    %rax,-0x58(%rbp)
    3774:	48 8b 85 58 ff ff ff 	mov    -0xa8(%rbp),%rax
    377b:	8b 40 0c             	mov    0xc(%rax),%eax
    377e:	83 e8 01             	sub    $0x1,%eax
    3781:	89 85 74 ff ff ff    	mov    %eax,-0x8c(%rbp)
    3787:	e9 8e 02 00 00       	jmp    3a1a <compute_rhs+0x42d>
    378c:	8b 85 74 ff ff ff    	mov    -0x8c(%rbp),%eax
    3792:	89 85 78 ff ff ff    	mov    %eax,-0x88(%rbp)
    3798:	e9 60 02 00 00       	jmp    39fd <compute_rhs+0x410>
    379d:	48 8b 45 98          	mov    -0x68(%rbp),%rax
    37a1:	48 83 e8 01          	sub    $0x1,%rax
    37a5:	48 8b 44 c5 b0       	mov    -0x50(%rbp,%rax,8),%rax
    37aa:	48 8b 55 90          	mov    -0x70(%rbp),%rdx
    37ae:	89 d1                	mov    %edx,%ecx
    37b0:	48 d3 e8             	shr    %cl,%rax
    37b3:	83 e0 0f             	and    $0xf,%eax
    37b6:	88 85 6f ff ff ff    	mov    %al,-0x91(%rbp)
    37bc:	48 8b 45 98          	mov    -0x68(%rbp),%rax
    37c0:	48 83 e8 01          	sub    $0x1,%rax
    37c4:	48 8b 54 c5 b0       	mov    -0x50(%rbp,%rax,8),%rdx
    37c9:	48 8b 45 98          	mov    -0x68(%rbp),%rax
    37cd:	48 83 e8 01          	sub    $0x1,%rax
    37d1:	48 c1 e2 04          	shl    $0x4,%rdx
    37d5:	48 89 54 c5 b0       	mov    %rdx,-0x50(%rbp,%rax,8)
    37da:	48 8b 45 98          	mov    -0x68(%rbp),%rax
    37de:	83 e8 02             	sub    $0x2,%eax
    37e1:	89 85 7c ff ff ff    	mov    %eax,-0x84(%rbp)
    37e7:	eb 5f                	jmp    3848 <compute_rhs+0x25b>
    37e9:	8b 85 7c ff ff ff    	mov    -0x84(%rbp),%eax
    37ef:	83 c0 01             	add    $0x1,%eax
    37f2:	48 98                	cltq
    37f4:	48 8b 4c c5 b0       	mov    -0x50(%rbp,%rax,8),%rcx
    37f9:	8b 85 7c ff ff ff    	mov    -0x84(%rbp),%eax
    37ff:	48 98                	cltq
    3801:	48 8b 44 c5 b0       	mov    -0x50(%rbp,%rax,8),%rax
    3806:	48 c1 e8 3c          	shr    $0x3c,%rax
    380a:	48 89 c2             	mov    %rax,%rdx
    380d:	8b 85 7c ff ff ff    	mov    -0x84(%rbp),%eax
    3813:	83 c0 01             	add    $0x1,%eax
    3816:	48 31 ca             	xor    %rcx,%rdx
    3819:	48 98                	cltq
    381b:	48 89 54 c5 b0       	mov    %rdx,-0x50(%rbp,%rax,8)
    3820:	8b 85 7c ff ff ff    	mov    -0x84(%rbp),%eax
    3826:	48 98                	cltq
    3828:	48 8b 44 c5 b0       	mov    -0x50(%rbp,%rax,8),%rax
    382d:	48 c1 e0 04          	shl    $0x4,%rax
    3831:	48 89 c2             	mov    %rax,%rdx
    3834:	8b 85 7c ff ff ff    	mov    -0x84(%rbp),%eax
    383a:	48 98                	cltq
    383c:	48 89 54 c5 b0       	mov    %rdx,-0x50(%rbp,%rax,8)
    3841:	83 ad 7c ff ff ff 01 	subl   $0x1,-0x84(%rbp)
    3848:	83 bd 7c ff ff ff 00 	cmpl   $0x0,-0x84(%rbp)
    384f:	79 98                	jns    37e9 <compute_rhs+0x1fc>
    3851:	c7 45 80 00 00 00 00 	movl   $0x0,-0x80(%rbp)
    3858:	e9 c6 00 00 00       	jmp    3923 <compute_rhs+0x336>
    385d:	8b 45 80             	mov    -0x80(%rbp),%eax
    3860:	83 e0 01             	and    $0x1,%eax
    3863:	85 c0                	test   %eax,%eax
    3865:	75 56                	jne    38bd <compute_rhs+0x2d0>
    3867:	48 8b 85 58 ff ff ff 	mov    -0xa8(%rbp),%rax
    386e:	48 8b 50 18          	mov    0x18(%rax),%rdx
    3872:	8b 45 80             	mov    -0x80(%rbp),%eax
    3875:	48 98                	cltq
    3877:	48 01 d0             	add    %rdx,%rax
    387a:	0f b6 00             	movzbl (%rax),%eax
    387d:	0f b6 d0             	movzbl %al,%edx
    3880:	0f b6 85 6f ff ff ff 	movzbl -0x91(%rbp),%eax
    3887:	89 d6                	mov    %edx,%esi
    3889:	89 c7                	mov    %eax,%edi
    388b:	e8 07 e3 ff ff       	call   1b97 <mul_f>
    3890:	89 c2                	mov    %eax,%edx
    3892:	8b 45 80             	mov    -0x80(%rbp),%eax
    3895:	89 c1                	mov    %eax,%ecx
    3897:	c1 e9 1f             	shr    $0x1f,%ecx
    389a:	01 c8                	add    %ecx,%eax
    389c:	d1 f8                	sar    $1,%eax
    389e:	89 c7                	mov    %eax,%edi
    38a0:	48 63 c7             	movslq %edi,%rax
    38a3:	48 8b 4d a8          	mov    -0x58(%rbp),%rcx
    38a7:	48 01 c8             	add    %rcx,%rax
    38aa:	0f b6 30             	movzbl (%rax),%esi
    38ad:	48 63 c7             	movslq %edi,%rax
    38b0:	48 8b 4d a8          	mov    -0x58(%rbp),%rcx
    38b4:	48 01 c8             	add    %rcx,%rax
    38b7:	31 f2                	xor    %esi,%edx
    38b9:	88 10                	mov    %dl,(%rax)
    38bb:	eb 62                	jmp    391f <compute_rhs+0x332>
    38bd:	48 8b 85 58 ff ff ff 	mov    -0xa8(%rbp),%rax
    38c4:	48 8b 50 18          	mov    0x18(%rax),%rdx
    38c8:	8b 45 80             	mov    -0x80(%rbp),%eax
    38cb:	48 98                	cltq
    38cd:	48 01 d0             	add    %rdx,%rax
    38d0:	0f b6 00             	movzbl (%rax),%eax
    38d3:	0f b6 d0             	movzbl %al,%edx
    38d6:	0f b6 85 6f ff ff ff 	movzbl -0x91(%rbp),%eax
    38dd:	89 d6                	mov    %edx,%esi
    38df:	89 c7                	mov    %eax,%edi
    38e1:	e8 b1 e2 ff ff       	call   1b97 <mul_f>
    38e6:	0f b6 c0             	movzbl %al,%eax
    38e9:	c1 e0 04             	shl    $0x4,%eax
    38ec:	89 c6                	mov    %eax,%esi
    38ee:	8b 45 80             	mov    -0x80(%rbp),%eax
    38f1:	89 c2                	mov    %eax,%edx
    38f3:	c1 ea 1f             	shr    $0x1f,%edx
    38f6:	01 d0                	add    %edx,%eax
    38f8:	d1 f8                	sar    $1,%eax
    38fa:	89 c1                	mov    %eax,%ecx
    38fc:	48 63 c1             	movslq %ecx,%rax
    38ff:	48 8b 55 a8          	mov    -0x58(%rbp),%rdx
    3903:	48 01 d0             	add    %rdx,%rax
    3906:	0f b6 00             	movzbl (%rax),%eax
    3909:	89 c2                	mov    %eax,%edx
    390b:	89 f0                	mov    %esi,%eax
    390d:	89 d6                	mov    %edx,%esi
    390f:	31 c6                	xor    %eax,%esi
    3911:	48 63 c1             	movslq %ecx,%rax
    3914:	48 8b 55 a8          	mov    -0x58(%rbp),%rdx
    3918:	48 01 d0             	add    %rdx,%rax
    391b:	89 f2                	mov    %esi,%edx
    391d:	88 10                	mov    %dl,(%rax)
    391f:	83 45 80 01          	addl   $0x1,-0x80(%rbp)
    3923:	83 7d 80 03          	cmpl   $0x3,-0x80(%rbp)
    3927:	0f 8e 30 ff ff ff    	jle    385d <compute_rhs+0x270>
    392d:	48 c7 45 88 00 00 00 	movq   $0x0,-0x78(%rbp)
    3934:	00 
    3935:	e9 ae 00 00 00       	jmp    39e8 <compute_rhs+0x3fb>
    393a:	48 8b 45 88          	mov    -0x78(%rbp),%rax
    393e:	48 8b 4c c5 b0       	mov    -0x50(%rbp,%rax,8),%rcx
    3943:	48 8b 85 58 ff ff ff 	mov    -0xa8(%rbp),%rax
    394a:	8b 40 0c             	mov    0xc(%rax),%eax
    394d:	0f af 85 74 ff ff ff 	imul   -0x8c(%rbp),%eax
    3954:	8b 95 78 ff ff ff    	mov    -0x88(%rbp),%edx
    395a:	01 d0                	add    %edx,%eax
    395c:	48 98                	cltq
    395e:	48 0f af 45 98       	imul   -0x68(%rbp),%rax
    3963:	48 8b 55 88          	mov    -0x78(%rbp),%rdx
    3967:	48 01 d0             	add    %rdx,%rax
    396a:	48 8d 14 c5 00 00 00 	lea    0x0(,%rax,8),%rdx
    3971:	00 
    3972:	48 8b 85 50 ff ff ff 	mov    -0xb0(%rbp),%rax
    3979:	48 01 d0             	add    %rdx,%rax
    397c:	48 8b 30             	mov    (%rax),%rsi
    397f:	8b 85 74 ff ff ff    	mov    -0x8c(%rbp),%eax
    3985:	3b 85 78 ff ff ff    	cmp    -0x88(%rbp),%eax
    398b:	0f 95 c0             	setne  %al
    398e:	0f b6 d0             	movzbl %al,%edx
    3991:	48 8b 85 58 ff ff ff 	mov    -0xa8(%rbp),%rax
    3998:	8b 40 0c             	mov    0xc(%rax),%eax
    399b:	0f af 85 78 ff ff ff 	imul   -0x88(%rbp),%eax
    39a2:	8b bd 74 ff ff ff    	mov    -0x8c(%rbp),%edi
    39a8:	01 f8                	add    %edi,%eax
    39aa:	48 98                	cltq
    39ac:	48 0f af 45 98       	imul   -0x68(%rbp),%rax
    39b1:	48 8b 7d 88          	mov    -0x78(%rbp),%rdi
    39b5:	48 01 f8             	add    %rdi,%rax
    39b8:	48 8d 3c c5 00 00 00 	lea    0x0(,%rax,8),%rdi
    39bf:	00 
    39c0:	48 8b 85 50 ff ff ff 	mov    -0xb0(%rbp),%rax
    39c7:	48 01 f8             	add    %rdi,%rax
    39ca:	48 8b 00             	mov    (%rax),%rax
    39cd:	48 0f af c2          	imul   %rdx,%rax
    39d1:	48 31 f0             	xor    %rsi,%rax
    39d4:	48 31 c1             	xor    %rax,%rcx
    39d7:	48 89 ca             	mov    %rcx,%rdx
    39da:	48 8b 45 88          	mov    -0x78(%rbp),%rax
    39de:	48 89 54 c5 b0       	mov    %rdx,-0x50(%rbp,%rax,8)
    39e3:	48 83 45 88 01       	addq   $0x1,-0x78(%rbp)
    39e8:	48 8b 45 88          	mov    -0x78(%rbp),%rax
    39ec:	48 3b 45 98          	cmp    -0x68(%rbp),%rax
    39f0:	0f 82 44 ff ff ff    	jb     393a <compute_rhs+0x34d>
    39f6:	83 85 78 ff ff ff 01 	addl   $0x1,-0x88(%rbp)
    39fd:	48 8b 85 58 ff ff ff 	mov    -0xa8(%rbp),%rax
    3a04:	8b 40 0c             	mov    0xc(%rax),%eax
    3a07:	39 85 78 ff ff ff    	cmp    %eax,-0x88(%rbp)
    3a0d:	0f 8c 8a fd ff ff    	jl     379d <compute_rhs+0x1b0>
    3a13:	83 ad 74 ff ff ff 01 	subl   $0x1,-0x8c(%rbp)
    3a1a:	83 bd 74 ff ff ff 00 	cmpl   $0x0,-0x8c(%rbp)
    3a21:	0f 89 65 fd ff ff    	jns    378c <compute_rhs+0x19f>
    3a27:	c7 45 84 00 00 00 00 	movl   $0x0,-0x7c(%rbp)
    3a2e:	e9 94 00 00 00       	jmp    3ac7 <compute_rhs+0x4da>
    3a33:	8b 45 84             	mov    -0x7c(%rbp),%eax
    3a36:	48 98                	cltq
    3a38:	48 8b 95 48 ff ff ff 	mov    -0xb8(%rbp),%rdx
    3a3f:	48 01 d0             	add    %rdx,%rax
    3a42:	0f b6 00             	movzbl (%rax),%eax
    3a45:	89 c1                	mov    %eax,%ecx
    3a47:	8b 45 84             	mov    -0x7c(%rbp),%eax
    3a4a:	89 c2                	mov    %eax,%edx
    3a4c:	c1 ea 1f             	shr    $0x1f,%edx
    3a4f:	01 d0                	add    %edx,%eax
    3a51:	d1 f8                	sar    $1,%eax
    3a53:	48 98                	cltq
    3a55:	48 8b 55 a8          	mov    -0x58(%rbp),%rdx
    3a59:	48 01 d0             	add    %rdx,%rax
    3a5c:	0f b6 00             	movzbl (%rax),%eax
    3a5f:	83 e0 0f             	and    $0xf,%eax
    3a62:	31 c1                	xor    %eax,%ecx
    3a64:	8b 45 84             	mov    -0x7c(%rbp),%eax
    3a67:	48 98                	cltq
    3a69:	48 8b 95 40 ff ff ff 	mov    -0xc0(%rbp),%rdx
    3a70:	48 01 d0             	add    %rdx,%rax
    3a73:	89 ca                	mov    %ecx,%edx
    3a75:	88 10                	mov    %dl,(%rax)
    3a77:	8b 45 84             	mov    -0x7c(%rbp),%eax
    3a7a:	48 98                	cltq
    3a7c:	48 8d 50 01          	lea    0x1(%rax),%rdx
    3a80:	48 8b 85 48 ff ff ff 	mov    -0xb8(%rbp),%rax
    3a87:	48 01 d0             	add    %rdx,%rax
    3a8a:	0f b6 08             	movzbl (%rax),%ecx
    3a8d:	8b 45 84             	mov    -0x7c(%rbp),%eax
    3a90:	89 c2                	mov    %eax,%edx
    3a92:	c1 ea 1f             	shr    $0x1f,%edx
    3a95:	01 d0                	add    %edx,%eax
    3a97:	d1 f8                	sar    $1,%eax
    3a99:	48 98                	cltq
    3a9b:	48 8b 55 a8          	mov    -0x58(%rbp),%rdx
    3a9f:	48 01 d0             	add    %rdx,%rax
    3aa2:	0f b6 00             	movzbl (%rax),%eax
    3aa5:	c0 e8 04             	shr    $0x4,%al
    3aa8:	89 c6                	mov    %eax,%esi
    3aaa:	8b 45 84             	mov    -0x7c(%rbp),%eax
    3aad:	48 98                	cltq
    3aaf:	48 8d 50 01          	lea    0x1(%rax),%rdx
    3ab3:	48 8b 85 40 ff ff ff 	mov    -0xc0(%rbp),%rax
    3aba:	48 01 d0             	add    %rdx,%rax
    3abd:	31 f1                	xor    %esi,%ecx
    3abf:	89 ca                	mov    %ecx,%edx
    3ac1:	88 10                	mov    %dl,(%rax)
    3ac3:	83 45 84 02          	addl   $0x2,-0x7c(%rbp)
    3ac7:	48 8b 85 58 ff ff ff 	mov    -0xa8(%rbp),%rax
    3ace:	8b 00                	mov    (%rax),%eax
    3ad0:	39 45 84             	cmp    %eax,-0x7c(%rbp)
    3ad3:	0f 8c 5a ff ff ff    	jl     3a33 <compute_rhs+0x446>
    3ad9:	90                   	nop
    3ada:	48 8b 45 f8          	mov    -0x8(%rbp),%rax
    3ade:	64 48 33 04 25 28 00 	xor    %fs:0x28,%rax
    3ae5:	00 00 
    3ae7:	74 05                	je     3aee <compute_rhs+0x501>
    3ae9:	e8 e2 d6 ff ff       	call   11d0 <__stack_chk_fail@plt>
    3aee:	c9                   	leave
    3aef:	c3                   	ret

0000000000003af0 <transpose_16x16_nibbles>:
    3af0:	f3 0f 1e fa          	endbr64
    3af4:	55                   	push   %rbp
    3af5:	48 89 e5             	mov    %rsp,%rbp
    3af8:	48 89 7d a8          	mov    %rdi,-0x58(%rbp)
    3afc:	48 c7 45 b0 00 00 00 	movq   $0x0,-0x50(%rbp)
    3b03:	00 
    3b04:	e9 bf 00 00 00       	jmp    3bc8 <transpose_16x16_nibbles+0xd8>
    3b09:	48 8b 45 b0          	mov    -0x50(%rbp),%rax
    3b0d:	48 8d 14 c5 00 00 00 	lea    0x0(,%rax,8),%rdx
    3b14:	00 
    3b15:	48 8b 45 a8          	mov    -0x58(%rbp),%rax
    3b19:	48 01 d0             	add    %rdx,%rax
    3b1c:	48 8b 00             	mov    (%rax),%rax
    3b1f:	48 c1 e8 04          	shr    $0x4,%rax
    3b23:	48 89 c2             	mov    %rax,%rdx
    3b26:	48 8b 45 b0          	mov    -0x50(%rbp),%rax
    3b2a:	48 83 c0 01          	add    $0x1,%rax
    3b2e:	48 8d 0c c5 00 00 00 	lea    0x0(,%rax,8),%rcx
    3b35:	00 
    3b36:	48 8b 45 a8          	mov    -0x58(%rbp),%rax
    3b3a:	48 01 c8             	add    %rcx,%rax
    3b3d:	48 8b 00             	mov    (%rax),%rax
    3b40:	48 31 c2             	xor    %rax,%rdx
    3b43:	48 8b 05 76 a5 00 00 	mov    0xa576(%rip),%rax        # e0c0 <even_nibbles.3407>
    3b4a:	48 21 d0             	and    %rdx,%rax
    3b4d:	48 89 45 f8          	mov    %rax,-0x8(%rbp)
    3b51:	48 8b 45 b0          	mov    -0x50(%rbp),%rax
    3b55:	48 8d 14 c5 00 00 00 	lea    0x0(,%rax,8),%rdx
    3b5c:	00 
    3b5d:	48 8b 45 a8          	mov    -0x58(%rbp),%rax
    3b61:	48 01 d0             	add    %rdx,%rax
    3b64:	48 8b 08             	mov    (%rax),%rcx
    3b67:	48 8b 45 f8          	mov    -0x8(%rbp),%rax
    3b6b:	48 c1 e0 04          	shl    $0x4,%rax
    3b6f:	48 89 c2             	mov    %rax,%rdx
    3b72:	48 8b 45 b0          	mov    -0x50(%rbp),%rax
    3b76:	48 8d 34 c5 00 00 00 	lea    0x0(,%rax,8),%rsi
    3b7d:	00 
    3b7e:	48 8b 45 a8          	mov    -0x58(%rbp),%rax
    3b82:	48 01 f0             	add    %rsi,%rax
    3b85:	48 31 ca             	xor    %rcx,%rdx
    3b88:	48 89 10             	mov    %rdx,(%rax)
    3b8b:	48 8b 45 b0          	mov    -0x50(%rbp),%rax
    3b8f:	48 83 c0 01          	add    $0x1,%rax
    3b93:	48 8d 14 c5 00 00 00 	lea    0x0(,%rax,8),%rdx
    3b9a:	00 
    3b9b:	48 8b 45 a8          	mov    -0x58(%rbp),%rax
    3b9f:	48 01 d0             	add    %rdx,%rax
    3ba2:	48 8b 00             	mov    (%rax),%rax
    3ba5:	48 8b 55 b0          	mov    -0x50(%rbp),%rdx
    3ba9:	48 83 c2 01          	add    $0x1,%rdx
    3bad:	48 8d 0c d5 00 00 00 	lea    0x0(,%rdx,8),%rcx
    3bb4:	00 
    3bb5:	48 8b 55 a8          	mov    -0x58(%rbp),%rdx
    3bb9:	48 01 ca             	add    %rcx,%rdx
    3bbc:	48 33 45 f8          	xor    -0x8(%rbp),%rax
    3bc0:	48 89 02             	mov    %rax,(%rdx)
    3bc3:	48 83 45 b0 02       	addq   $0x2,-0x50(%rbp)
    3bc8:	48 83 7d b0 0f       	cmpq   $0xf,-0x50(%rbp)
    3bcd:	0f 86 36 ff ff ff    	jbe    3b09 <transpose_16x16_nibbles+0x19>
    3bd3:	48 c7 45 b8 00 00 00 	movq   $0x0,-0x48(%rbp)
    3bda:	00 
    3bdb:	e9 85 01 00 00       	jmp    3d65 <transpose_16x16_nibbles+0x275>
    3be0:	48 8b 45 b8          	mov    -0x48(%rbp),%rax
    3be4:	48 8d 14 c5 00 00 00 	lea    0x0(,%rax,8),%rdx
    3beb:	00 
    3bec:	48 8b 45 a8          	mov    -0x58(%rbp),%rax
    3bf0:	48 01 d0             	add    %rdx,%rax
    3bf3:	48 8b 00             	mov    (%rax),%rax
    3bf6:	48 c1 e8 08          	shr    $0x8,%rax
    3bfa:	48 89 c2             	mov    %rax,%rdx
    3bfd:	48 8b 45 b8          	mov    -0x48(%rbp),%rax
    3c01:	48 83 c0 02          	add    $0x2,%rax
    3c05:	48 8d 0c c5 00 00 00 	lea    0x0(,%rax,8),%rcx
    3c0c:	00 
    3c0d:	48 8b 45 a8          	mov    -0x58(%rbp),%rax
    3c11:	48 01 c8             	add    %rcx,%rax
    3c14:	48 8b 00             	mov    (%rax),%rax
    3c17:	48 31 c2             	xor    %rax,%rdx
    3c1a:	48 8b 05 a7 a4 00 00 	mov    0xa4a7(%rip),%rax        # e0c8 <even_bytes.3408>
    3c21:	48 21 d0             	and    %rdx,%rax
    3c24:	48 89 45 e8          	mov    %rax,-0x18(%rbp)
    3c28:	48 8b 45 b8          	mov    -0x48(%rbp),%rax
    3c2c:	48 83 c0 01          	add    $0x1,%rax
    3c30:	48 8d 14 c5 00 00 00 	lea    0x0(,%rax,8),%rdx
    3c37:	00 
    3c38:	48 8b 45 a8          	mov    -0x58(%rbp),%rax
    3c3c:	48 01 d0             	add    %rdx,%rax
    3c3f:	48 8b 00             	mov    (%rax),%rax
    3c42:	48 c1 e8 08          	shr    $0x8,%rax
    3c46:	48 89 c2             	mov    %rax,%rdx
    3c49:	48 8b 45 b8          	mov    -0x48(%rbp),%rax
    3c4d:	48 83 c0 03          	add    $0x3,%rax
    3c51:	48 8d 0c c5 00 00 00 	lea    0x0(,%rax,8),%rcx
    3c58:	00 
    3c59:	48 8b 45 a8          	mov    -0x58(%rbp),%rax
    3c5d:	48 01 c8             	add    %rcx,%rax
    3c60:	48 8b 00             	mov    (%rax),%rax
    3c63:	48 31 c2             	xor    %rax,%rdx
    3c66:	48 8b 05 5b a4 00 00 	mov    0xa45b(%rip),%rax        # e0c8 <even_bytes.3408>
    3c6d:	48 21 d0             	and    %rdx,%rax
    3c70:	48 89 45 f0          	mov    %rax,-0x10(%rbp)
    3c74:	48 8b 45 b8          	mov    -0x48(%rbp),%rax
    3c78:	48 8d 14 c5 00 00 00 	lea    0x0(,%rax,8),%rdx
    3c7f:	00 
    3c80:	48 8b 45 a8          	mov    -0x58(%rbp),%rax
    3c84:	48 01 d0             	add    %rdx,%rax
    3c87:	48 8b 08             	mov    (%rax),%rcx
    3c8a:	48 8b 45 e8          	mov    -0x18(%rbp),%rax
    3c8e:	48 c1 e0 08          	shl    $0x8,%rax
    3c92:	48 89 c2             	mov    %rax,%rdx
    3c95:	48 8b 45 b8          	mov    -0x48(%rbp),%rax
    3c99:	48 8d 34 c5 00 00 00 	lea    0x0(,%rax,8),%rsi
    3ca0:	00 
    3ca1:	48 8b 45 a8          	mov    -0x58(%rbp),%rax
    3ca5:	48 01 f0             	add    %rsi,%rax
    3ca8:	48 31 ca             	xor    %rcx,%rdx
    3cab:	48 89 10             	mov    %rdx,(%rax)
    3cae:	48 8b 45 b8          	mov    -0x48(%rbp),%rax
    3cb2:	48 83 c0 01          	add    $0x1,%rax
    3cb6:	48 8d 14 c5 00 00 00 	lea    0x0(,%rax,8),%rdx
    3cbd:	00 
    3cbe:	48 8b 45 a8          	mov    -0x58(%rbp),%rax
    3cc2:	48 01 d0             	add    %rdx,%rax
    3cc5:	48 8b 08             	mov    (%rax),%rcx
    3cc8:	48 8b 45 f0          	mov    -0x10(%rbp),%rax
    3ccc:	48 c1 e0 08          	shl    $0x8,%rax
    3cd0:	48 89 c2             	mov    %rax,%rdx
    3cd3:	48 8b 45 b8          	mov    -0x48(%rbp),%rax
    3cd7:	48 83 c0 01          	add    $0x1,%rax
    3cdb:	48 8d 34 c5 00 00 00 	lea    0x0(,%rax,8),%rsi
    3ce2:	00 
    3ce3:	48 8b 45 a8          	mov    -0x58(%rbp),%rax
    3ce7:	48 01 f0             	add    %rsi,%rax
    3cea:	48 31 ca             	xor    %rcx,%rdx
    3ced:	48 89 10             	mov    %rdx,(%rax)
    3cf0:	48 8b 45 b8          	mov    -0x48(%rbp),%rax
    3cf4:	48 83 c0 02          	add    $0x2,%rax
    3cf8:	48 8d 14 c5 00 00 00 	lea    0x0(,%rax,8),%rdx
    3cff:	00 
    3d00:	48 8b 45 a8          	mov    -0x58(%rbp),%rax
    3d04:	48 01 d0             	add    %rdx,%rax
    3d07:	48 8b 00             	mov    (%rax),%rax
    3d0a:	48 8b 55 b8          	mov    -0x48(%rbp),%rdx
    3d0e:	48 83 c2 02          	add    $0x2,%rdx
    3d12:	48 8d 0c d5 00 00 00 	lea    0x0(,%rdx,8),%rcx
    3d19:	00 
    3d1a:	48 8b 55 a8          	mov    -0x58(%rbp),%rdx
    3d1e:	48 01 ca             	add    %rcx,%rdx
    3d21:	48 33 45 e8          	xor    -0x18(%rbp),%rax
    3d25:	48 89 02             	mov    %rax,(%rdx)
    3d28:	48 8b 45 b8          	mov    -0x48(%rbp),%rax
    3d2c:	48 83 c0 03          	add    $0x3,%rax
    3d30:	48 8d 14 c5 00 00 00 	lea    0x0(,%rax,8),%rdx
    3d37:	00 
    3d38:	48 8b 45 a8          	mov    -0x58(%rbp),%rax
    3d3c:	48 01 d0             	add    %rdx,%rax
    3d3f:	48 8b 00             	mov    (%rax),%rax
    3d42:	48 8b 55 b8          	mov    -0x48(%rbp),%rdx
    3d46:	48 83 c2 03          	add    $0x3,%rdx
    3d4a:	48 8d 0c d5 00 00 00 	lea    0x0(,%rdx,8),%rcx
    3d51:	00 
    3d52:	48 8b 55 a8          	mov    -0x58(%rbp),%rdx
    3d56:	48 01 ca             	add    %rcx,%rdx
    3d59:	48 33 45 f0          	xor    -0x10(%rbp),%rax
    3d5d:	48 89 02             	mov    %rax,(%rdx)
    3d60:	48 83 45 b8 04       	addq   $0x4,-0x48(%rbp)
    3d65:	48 83 7d b8 0f       	cmpq   $0xf,-0x48(%rbp)
    3d6a:	0f 86 70 fe ff ff    	jbe    3be0 <transpose_16x16_nibbles+0xf0>
    3d70:	48 c7 45 c0 00 00 00 	movq   $0x0,-0x40(%rbp)
    3d77:	00 
    3d78:	e9 85 01 00 00       	jmp    3f02 <transpose_16x16_nibbles+0x412>
    3d7d:	48 8b 45 c0          	mov    -0x40(%rbp),%rax
    3d81:	48 8d 14 c5 00 00 00 	lea    0x0(,%rax,8),%rdx
    3d88:	00 
    3d89:	48 8b 45 a8          	mov    -0x58(%rbp),%rax
    3d8d:	48 01 d0             	add    %rdx,%rax
    3d90:	48 8b 00             	mov    (%rax),%rax
    3d93:	48 c1 e8 10          	shr    $0x10,%rax
    3d97:	48 89 c2             	mov    %rax,%rdx
    3d9a:	48 8b 45 c0          	mov    -0x40(%rbp),%rax
    3d9e:	48 83 c0 04          	add    $0x4,%rax
    3da2:	48 8d 0c c5 00 00 00 	lea    0x0(,%rax,8),%rcx
    3da9:	00 
    3daa:	48 8b 45 a8          	mov    -0x58(%rbp),%rax
    3dae:	48 01 c8             	add    %rcx,%rax
    3db1:	48 8b 00             	mov    (%rax),%rax
    3db4:	48 31 c2             	xor    %rax,%rdx
    3db7:	48 8b 05 12 a3 00 00 	mov    0xa312(%rip),%rax        # e0d0 <even_2bytes.3409>
    3dbe:	48 21 d0             	and    %rdx,%rax
    3dc1:	48 89 45 d8          	mov    %rax,-0x28(%rbp)
    3dc5:	48 8b 45 c0          	mov    -0x40(%rbp),%rax
    3dc9:	48 83 c0 08          	add    $0x8,%rax
    3dcd:	48 8d 14 c5 00 00 00 	lea    0x0(,%rax,8),%rdx
    3dd4:	00 
    3dd5:	48 8b 45 a8          	mov    -0x58(%rbp),%rax
    3dd9:	48 01 d0             	add    %rdx,%rax
    3ddc:	48 8b 00             	mov    (%rax),%rax
    3ddf:	48 c1 e8 10          	shr    $0x10,%rax
    3de3:	48 89 c2             	mov    %rax,%rdx
    3de6:	48 8b 45 c0          	mov    -0x40(%rbp),%rax
    3dea:	48 83 c0 0c          	add    $0xc,%rax
    3dee:	48 8d 0c c5 00 00 00 	lea    0x0(,%rax,8),%rcx
    3df5:	00 
    3df6:	48 8b 45 a8          	mov    -0x58(%rbp),%rax
    3dfa:	48 01 c8             	add    %rcx,%rax
    3dfd:	48 8b 00             	mov    (%rax),%rax
    3e00:	48 31 c2             	xor    %rax,%rdx
    3e03:	48 8b 05 c6 a2 00 00 	mov    0xa2c6(%rip),%rax        # e0d0 <even_2bytes.3409>
    3e0a:	48 21 d0             	and    %rdx,%rax
    3e0d:	48 89 45 e0          	mov    %rax,-0x20(%rbp)
    3e11:	48 8b 45 c0          	mov    -0x40(%rbp),%rax
    3e15:	48 8d 14 c5 00 00 00 	lea    0x0(,%rax,8),%rdx
    3e1c:	00 
    3e1d:	48 8b 45 a8          	mov    -0x58(%rbp),%rax
    3e21:	48 01 d0             	add    %rdx,%rax
    3e24:	48 8b 08             	mov    (%rax),%rcx
    3e27:	48 8b 45 d8          	mov    -0x28(%rbp),%rax
    3e2b:	48 c1 e0 10          	shl    $0x10,%rax
    3e2f:	48 89 c2             	mov    %rax,%rdx
    3e32:	48 8b 45 c0          	mov    -0x40(%rbp),%rax
    3e36:	48 8d 34 c5 00 00 00 	lea    0x0(,%rax,8),%rsi
    3e3d:	00 
    3e3e:	48 8b 45 a8          	mov    -0x58(%rbp),%rax
    3e42:	48 01 f0             	add    %rsi,%rax
    3e45:	48 31 ca             	xor    %rcx,%rdx
    3e48:	48 89 10             	mov    %rdx,(%rax)
    3e4b:	48 8b 45 c0          	mov    -0x40(%rbp),%rax
    3e4f:	48 83 c0 08          	add    $0x8,%rax
    3e53:	48 8d 14 c5 00 00 00 	lea    0x0(,%rax,8),%rdx
    3e5a:	00 
    3e5b:	48 8b 45 a8          	mov    -0x58(%rbp),%rax
    3e5f:	48 01 d0             	add    %rdx,%rax
    3e62:	48 8b 08             	mov    (%rax),%rcx
    3e65:	48 8b 45 e0          	mov    -0x20(%rbp),%rax
    3e69:	48 c1 e0 10          	shl    $0x10,%rax
    3e6d:	48 89 c2             	mov    %rax,%rdx
    3e70:	48 8b 45 c0          	mov    -0x40(%rbp),%rax
    3e74:	48 83 c0 08          	add    $0x8,%rax
    3e78:	48 8d 34 c5 00 00 00 	lea    0x0(,%rax,8),%rsi
    3e7f:	00 
    3e80:	48 8b 45 a8          	mov    -0x58(%rbp),%rax
    3e84:	48 01 f0             	add    %rsi,%rax
    3e87:	48 31 ca             	xor    %rcx,%rdx
    3e8a:	48 89 10             	mov    %rdx,(%rax)
    3e8d:	48 8b 45 c0          	mov    -0x40(%rbp),%rax
    3e91:	48 83 c0 04          	add    $0x4,%rax
    3e95:	48 8d 14 c5 00 00 00 	lea    0x0(,%rax,8),%rdx
    3e9c:	00 
    3e9d:	48 8b 45 a8          	mov    -0x58(%rbp),%rax
    3ea1:	48 01 d0             	add    %rdx,%rax
    3ea4:	48 8b 00             	mov    (%rax),%rax
    3ea7:	48 8b 55 c0          	mov    -0x40(%rbp),%rdx
    3eab:	48 83 c2 04          	add    $0x4,%rdx
    3eaf:	48 8d 0c d5 00 00 00 	lea    0x0(,%rdx,8),%rcx
    3eb6:	00 
    3eb7:	48 8b 55 a8          	mov    -0x58(%rbp),%rdx
    3ebb:	48 01 ca             	add    %rcx,%rdx
    3ebe:	48 33 45 d8          	xor    -0x28(%rbp),%rax
    3ec2:	48 89 02             	mov    %rax,(%rdx)
    3ec5:	48 8b 45 c0          	mov    -0x40(%rbp),%rax
    3ec9:	48 83 c0 0c          	add    $0xc,%rax
    3ecd:	48 8d 14 c5 00 00 00 	lea    0x0(,%rax,8),%rdx
    3ed4:	00 
    3ed5:	48 8b 45 a8          	mov    -0x58(%rbp),%rax
    3ed9:	48 01 d0             	add    %rdx,%rax
    3edc:	48 8b 00             	mov    (%rax),%rax
    3edf:	48 8b 55 c0          	mov    -0x40(%rbp),%rdx
    3ee3:	48 83 c2 0c          	add    $0xc,%rdx
    3ee7:	48 8d 0c d5 00 00 00 	lea    0x0(,%rdx,8),%rcx
    3eee:	00 
    3eef:	48 8b 55 a8          	mov    -0x58(%rbp),%rdx
    3ef3:	48 01 ca             	add    %rcx,%rdx
    3ef6:	48 33 45 e0          	xor    -0x20(%rbp),%rax
    3efa:	48 89 02             	mov    %rax,(%rdx)
    3efd:	48 83 45 c0 01       	addq   $0x1,-0x40(%rbp)
    3f02:	48 83 7d c0 03       	cmpq   $0x3,-0x40(%rbp)
    3f07:	0f 86 70 fe ff ff    	jbe    3d7d <transpose_16x16_nibbles+0x28d>
    3f0d:	48 c7 45 c8 00 00 00 	movq   $0x0,-0x38(%rbp)
    3f14:	00 
    3f15:	e9 bf 00 00 00       	jmp    3fd9 <transpose_16x16_nibbles+0x4e9>
    3f1a:	48 8b 45 c8          	mov    -0x38(%rbp),%rax
    3f1e:	48 8d 14 c5 00 00 00 	lea    0x0(,%rax,8),%rdx
    3f25:	00 
    3f26:	48 8b 45 a8          	mov    -0x58(%rbp),%rax
    3f2a:	48 01 d0             	add    %rdx,%rax
    3f2d:	48 8b 00             	mov    (%rax),%rax
    3f30:	48 c1 e8 20          	shr    $0x20,%rax
    3f34:	48 89 c2             	mov    %rax,%rdx
    3f37:	48 8b 45 c8          	mov    -0x38(%rbp),%rax
    3f3b:	48 83 c0 08          	add    $0x8,%rax
    3f3f:	48 8d 0c c5 00 00 00 	lea    0x0(,%rax,8),%rcx
    3f46:	00 
    3f47:	48 8b 45 a8          	mov    -0x58(%rbp),%rax
    3f4b:	48 01 c8             	add    %rcx,%rax
    3f4e:	48 8b 00             	mov    (%rax),%rax
    3f51:	48 31 c2             	xor    %rax,%rdx
    3f54:	48 8b 05 7d a1 00 00 	mov    0xa17d(%rip),%rax        # e0d8 <even_half.3410>
    3f5b:	48 21 d0             	and    %rdx,%rax
    3f5e:	48 89 45 d0          	mov    %rax,-0x30(%rbp)
    3f62:	48 8b 45 c8          	mov    -0x38(%rbp),%rax
    3f66:	48 8d 14 c5 00 00 00 	lea    0x0(,%rax,8),%rdx
    3f6d:	00 
    3f6e:	48 8b 45 a8          	mov    -0x58(%rbp),%rax
    3f72:	48 01 d0             	add    %rdx,%rax
    3f75:	48 8b 08             	mov    (%rax),%rcx
    3f78:	48 8b 45 d0          	mov    -0x30(%rbp),%rax
    3f7c:	48 c1 e0 20          	shl    $0x20,%rax
    3f80:	48 89 c2             	mov    %rax,%rdx
    3f83:	48 8b 45 c8          	mov    -0x38(%rbp),%rax
    3f87:	48 8d 34 c5 00 00 00 	lea    0x0(,%rax,8),%rsi
    3f8e:	00 
    3f8f:	48 8b 45 a8          	mov    -0x58(%rbp),%rax
    3f93:	48 01 f0             	add    %rsi,%rax
    3f96:	48 31 ca             	xor    %rcx,%rdx
    3f99:	48 89 10             	mov    %rdx,(%rax)
    3f9c:	48 8b 45 c8          	mov    -0x38(%rbp),%rax
    3fa0:	48 83 c0 08          	add    $0x8,%rax
    3fa4:	48 8d 14 c5 00 00 00 	lea    0x0(,%rax,8),%rdx
    3fab:	00 
    3fac:	48 8b 45 a8          	mov    -0x58(%rbp),%rax
    3fb0:	48 01 d0             	add    %rdx,%rax
    3fb3:	48 8b 00             	mov    (%rax),%rax
    3fb6:	48 8b 55 c8          	mov    -0x38(%rbp),%rdx
    3fba:	48 83 c2 08          	add    $0x8,%rdx
    3fbe:	48 8d 0c d5 00 00 00 	lea    0x0(,%rdx,8),%rcx
    3fc5:	00 
    3fc6:	48 8b 55 a8          	mov    -0x58(%rbp),%rdx
    3fca:	48 01 ca             	add    %rcx,%rdx
    3fcd:	48 33 45 d0          	xor    -0x30(%rbp),%rax
    3fd1:	48 89 02             	mov    %rax,(%rdx)
    3fd4:	48 83 45 c8 01       	addq   $0x1,-0x38(%rbp)
    3fd9:	48 83 7d c8 07       	cmpq   $0x7,-0x38(%rbp)
    3fde:	0f 86 36 ff ff ff    	jbe    3f1a <transpose_16x16_nibbles+0x42a>
    3fe4:	90                   	nop
    3fe5:	90                   	nop
    3fe6:	5d                   	pop    %rbp
    3fe7:	c3                   	ret

0000000000003fe8 <compute_A>:
    3fe8:	f3 0f 1e fa          	endbr64
    3fec:	55                   	push   %rbp
    3fed:	48 89 e5             	mov    %rsp,%rbp
    3ff0:	53                   	push   %rbx
    3ff1:	4c 8d 9c 24 00 90 ff 	lea    -0x7000(%rsp),%r11
    3ff8:	ff 
    3ff9:	48 81 ec 00 10 00 00 	sub    $0x1000,%rsp
    4000:	48 83 0c 24 00       	orq    $0x0,(%rsp)
    4005:	4c 39 dc             	cmp    %r11,%rsp
    4008:	75 ef                	jne    3ff9 <compute_A+0x11>
    400a:	48 81 ec f8 05 00 00 	sub    $0x5f8,%rsp
    4011:	48 89 bd 18 8a ff ff 	mov    %rdi,-0x75e8(%rbp)
    4018:	48 89 b5 10 8a ff ff 	mov    %rsi,-0x75f0(%rbp)
    401f:	48 89 95 08 8a ff ff 	mov    %rdx,-0x75f8(%rbp)
    4026:	64 48 8b 04 25 28 00 	mov    %fs:0x28,%rax
    402d:	00 00 
    402f:	48 89 45 e8          	mov    %rax,-0x18(%rbp)
    4033:	31 c0                	xor    %eax,%eax
    4035:	c7 85 28 8a ff ff 00 	movl   $0x0,-0x75d8(%rbp)
    403c:	00 00 00 
    403f:	c7 85 2c 8a ff ff 00 	movl   $0x0,-0x75d4(%rbp)
    4046:	00 00 00 
    4049:	48 8b 85 18 8a ff ff 	mov    -0x75e8(%rbp),%rax
    4050:	8b 40 5c             	mov    0x5c(%rax),%eax
    4053:	89 85 5c 8a ff ff    	mov    %eax,-0x75a4(%rbp)
    4059:	48 8d 85 d0 8a ff ff 	lea    -0x7530(%rbp),%rax
    4060:	ba 00 75 00 00       	mov    $0x7500,%edx
    4065:	be 00 00 00 00       	mov    $0x0,%esi
    406a:	48 89 c7             	mov    %rax,%rdi
    406d:	e8 8e d1 ff ff       	call   1200 <memset@plt>
    4072:	48 8b 85 18 8a ff ff 	mov    -0x75e8(%rbp),%rax
    4079:	8b 50 08             	mov    0x8(%rax),%edx
    407c:	48 8b 85 18 8a ff ff 	mov    -0x75e8(%rbp),%rax
    4083:	8b 40 0c             	mov    0xc(%rax),%eax
    4086:	0f af c2             	imul   %edx,%eax
    4089:	83 c0 0f             	add    $0xf,%eax
    408c:	8d 50 0f             	lea    0xf(%rax),%edx
    408f:	85 c0                	test   %eax,%eax
    4091:	0f 48 c2             	cmovs  %edx,%eax
    4094:	c1 f8 04             	sar    $0x4,%eax
    4097:	c1 e0 04             	shl    $0x4,%eax
    409a:	48 98                	cltq
    409c:	48 89 85 80 8a ff ff 	mov    %rax,-0x7580(%rbp)
    40a3:	48 8b 85 18 8a ff ff 	mov    -0x75e8(%rbp),%rax
    40aa:	8b 00                	mov    (%rax),%eax
    40ac:	83 e0 0f             	and    $0xf,%eax
    40af:	85 c0                	test   %eax,%eax
    40b1:	0f 84 cf 00 00 00    	je     4186 <compute_A+0x19e>
    40b7:	48 c7 85 88 8a ff ff 	movq   $0x1,-0x7578(%rbp)
    40be:	01 00 00 00 
    40c2:	48 8b 85 18 8a ff ff 	mov    -0x75e8(%rbp),%rax
    40c9:	8b 10                	mov    (%rax),%edx
    40cb:	89 d0                	mov    %edx,%eax
    40cd:	c1 f8 1f             	sar    $0x1f,%eax
    40d0:	c1 e8 1c             	shr    $0x1c,%eax
    40d3:	01 c2                	add    %eax,%edx
    40d5:	83 e2 0f             	and    $0xf,%edx
    40d8:	29 c2                	sub    %eax,%edx
    40da:	89 d0                	mov    %edx,%eax
    40dc:	c1 e0 02             	shl    $0x2,%eax
    40df:	89 c1                	mov    %eax,%ecx
    40e1:	48 d3 a5 88 8a ff ff 	shlq   %cl,-0x7578(%rbp)
    40e8:	48 83 ad 88 8a ff ff 	subq   $0x1,-0x7578(%rbp)
    40ef:	01 
    40f0:	c7 85 30 8a ff ff 00 	movl   $0x0,-0x75d0(%rbp)
    40f7:	00 00 00 
    40fa:	eb 67                	jmp    4163 <compute_A+0x17b>
    40fc:	8b 85 30 8a ff ff    	mov    -0x75d0(%rbp),%eax
    4102:	0f af 85 5c 8a ff ff 	imul   -0x75a4(%rbp),%eax
    4109:	8b 95 5c 8a ff ff    	mov    -0x75a4(%rbp),%edx
    410f:	01 d0                	add    %edx,%eax
    4111:	48 98                	cltq
    4113:	48 c1 e0 03          	shl    $0x3,%rax
    4117:	48 8d 50 f8          	lea    -0x8(%rax),%rdx
    411b:	48 8b 85 10 8a ff ff 	mov    -0x75f0(%rbp),%rax
    4122:	48 01 d0             	add    %rdx,%rax
    4125:	48 8b 00             	mov    (%rax),%rax
    4128:	8b 95 30 8a ff ff    	mov    -0x75d0(%rbp),%edx
    412e:	0f af 95 5c 8a ff ff 	imul   -0x75a4(%rbp),%edx
    4135:	8b 8d 5c 8a ff ff    	mov    -0x75a4(%rbp),%ecx
    413b:	01 ca                	add    %ecx,%edx
    413d:	48 63 d2             	movslq %edx,%rdx
    4140:	48 c1 e2 03          	shl    $0x3,%rdx
    4144:	48 8d 4a f8          	lea    -0x8(%rdx),%rcx
    4148:	48 8b 95 10 8a ff ff 	mov    -0x75f0(%rbp),%rdx
    414f:	48 01 ca             	add    %rcx,%rdx
    4152:	48 23 85 88 8a ff ff 	and    -0x7578(%rbp),%rax
    4159:	48 89 02             	mov    %rax,(%rdx)
    415c:	83 85 30 8a ff ff 01 	addl   $0x1,-0x75d0(%rbp)
    4163:	48 8b 85 18 8a ff ff 	mov    -0x75e8(%rbp),%rax
    416a:	8b 50 08             	mov    0x8(%rax),%edx
    416d:	48 8b 85 18 8a ff ff 	mov    -0x75e8(%rbp),%rax
    4174:	8b 40 0c             	mov    0xc(%rax),%eax
    4177:	0f af c2             	imul   %edx,%eax
    417a:	39 85 30 8a ff ff    	cmp    %eax,-0x75d0(%rbp)
    4180:	0f 8c 76 ff ff ff    	jl     40fc <compute_A+0x114>
    4186:	c7 85 34 8a ff ff 00 	movl   $0x0,-0x75cc(%rbp)
    418d:	00 00 00 
    4190:	e9 a5 04 00 00       	jmp    463a <compute_A+0x652>
    4195:	48 8b 85 18 8a ff ff 	mov    -0x75e8(%rbp),%rax
    419c:	8b 40 0c             	mov    0xc(%rax),%eax
    419f:	83 e8 01             	sub    $0x1,%eax
    41a2:	89 85 38 8a ff ff    	mov    %eax,-0x75c8(%rbp)
    41a8:	e9 74 04 00 00       	jmp    4621 <compute_A+0x639>
    41ad:	8b 85 38 8a ff ff    	mov    -0x75c8(%rbp),%eax
    41b3:	0f af 85 5c 8a ff ff 	imul   -0x75a4(%rbp),%eax
    41ba:	48 8b 95 18 8a ff ff 	mov    -0x75e8(%rbp),%rdx
    41c1:	8b 52 08             	mov    0x8(%rdx),%edx
    41c4:	0f af c2             	imul   %edx,%eax
    41c7:	48 98                	cltq
    41c9:	48 8d 14 c5 00 00 00 	lea    0x0(,%rax,8),%rdx
    41d0:	00 
    41d1:	48 8b 85 10 8a ff ff 	mov    -0x75f0(%rbp),%rax
    41d8:	48 01 d0             	add    %rdx,%rax
    41db:	48 89 85 c0 8a ff ff 	mov    %rax,-0x7540(%rbp)
    41e2:	c7 85 3c 8a ff ff 00 	movl   $0x0,-0x75c4(%rbp)
    41e9:	00 00 00 
    41ec:	e9 c3 01 00 00       	jmp    43b4 <compute_A+0x3cc>
    41f1:	c7 85 40 8a ff ff 00 	movl   $0x0,-0x75c0(%rbp)
    41f8:	00 00 00 
    41fb:	e9 9b 01 00 00       	jmp    439b <compute_A+0x3b3>
    4200:	48 8b 85 18 8a ff ff 	mov    -0x75e8(%rbp),%rax
    4207:	8b 40 08             	mov    0x8(%rax),%eax
    420a:	0f af 85 34 8a ff ff 	imul   -0x75cc(%rbp),%eax
    4211:	8b 95 3c 8a ff ff    	mov    -0x75c4(%rbp),%edx
    4217:	01 d0                	add    %edx,%eax
    4219:	48 63 d0             	movslq %eax,%rdx
    421c:	8b 8d 40 8a ff ff    	mov    -0x75c0(%rbp),%ecx
    4222:	8b 85 2c 8a ff ff    	mov    -0x75d4(%rbp),%eax
    4228:	01 c8                	add    %ecx,%eax
    422a:	48 98                	cltq
    422c:	48 0f af 85 80 8a ff 	imul   -0x7580(%rbp),%rax
    4233:	ff 
    4234:	48 01 d0             	add    %rdx,%rax
    4237:	48 8b b4 c5 d0 8a ff 	mov    -0x7530(%rbp,%rax,8),%rsi
    423e:	ff 
    423f:	8b 85 3c 8a ff ff    	mov    -0x75c4(%rbp),%eax
    4245:	0f af 85 5c 8a ff ff 	imul   -0x75a4(%rbp),%eax
    424c:	8b 95 40 8a ff ff    	mov    -0x75c0(%rbp),%edx
    4252:	01 d0                	add    %edx,%eax
    4254:	48 98                	cltq
    4256:	48 8d 14 c5 00 00 00 	lea    0x0(,%rax,8),%rdx
    425d:	00 
    425e:	48 8b 85 c0 8a ff ff 	mov    -0x7540(%rbp),%rax
    4265:	48 01 d0             	add    %rdx,%rax
    4268:	48 8b 10             	mov    (%rax),%rdx
    426b:	8b 85 28 8a ff ff    	mov    -0x75d8(%rbp),%eax
    4271:	89 c1                	mov    %eax,%ecx
    4273:	48 d3 e2             	shl    %cl,%rdx
    4276:	48 89 d1             	mov    %rdx,%rcx
    4279:	48 8b 85 18 8a ff ff 	mov    -0x75e8(%rbp),%rax
    4280:	8b 40 08             	mov    0x8(%rax),%eax
    4283:	0f af 85 34 8a ff ff 	imul   -0x75cc(%rbp),%eax
    428a:	8b 95 3c 8a ff ff    	mov    -0x75c4(%rbp),%edx
    4290:	01 d0                	add    %edx,%eax
    4292:	48 63 d0             	movslq %eax,%rdx
    4295:	8b bd 40 8a ff ff    	mov    -0x75c0(%rbp),%edi
    429b:	8b 85 2c 8a ff ff    	mov    -0x75d4(%rbp),%eax
    42a1:	01 f8                	add    %edi,%eax
    42a3:	48 98                	cltq
    42a5:	48 0f af 85 80 8a ff 	imul   -0x7580(%rbp),%rax
    42ac:	ff 
    42ad:	48 01 d0             	add    %rdx,%rax
    42b0:	48 31 ce             	xor    %rcx,%rsi
    42b3:	48 89 f2             	mov    %rsi,%rdx
    42b6:	48 89 94 c5 d0 8a ff 	mov    %rdx,-0x7530(%rbp,%rax,8)
    42bd:	ff 
    42be:	83 bd 28 8a ff ff 00 	cmpl   $0x0,-0x75d8(%rbp)
    42c5:	0f 8e c9 00 00 00    	jle    4394 <compute_A+0x3ac>
    42cb:	48 8b 85 18 8a ff ff 	mov    -0x75e8(%rbp),%rax
    42d2:	8b 40 08             	mov    0x8(%rax),%eax
    42d5:	0f af 85 34 8a ff ff 	imul   -0x75cc(%rbp),%eax
    42dc:	8b 95 3c 8a ff ff    	mov    -0x75c4(%rbp),%edx
    42e2:	01 d0                	add    %edx,%eax
    42e4:	48 63 d0             	movslq %eax,%rdx
    42e7:	8b 8d 40 8a ff ff    	mov    -0x75c0(%rbp),%ecx
    42ed:	8b 85 2c 8a ff ff    	mov    -0x75d4(%rbp),%eax
    42f3:	01 c8                	add    %ecx,%eax
    42f5:	83 c0 01             	add    $0x1,%eax
    42f8:	48 98                	cltq
    42fa:	48 0f af 85 80 8a ff 	imul   -0x7580(%rbp),%rax
    4301:	ff 
    4302:	48 01 d0             	add    %rdx,%rax
    4305:	48 8b b4 c5 d0 8a ff 	mov    -0x7530(%rbp,%rax,8),%rsi
    430c:	ff 
    430d:	8b 85 3c 8a ff ff    	mov    -0x75c4(%rbp),%eax
    4313:	0f af 85 5c 8a ff ff 	imul   -0x75a4(%rbp),%eax
    431a:	8b 95 40 8a ff ff    	mov    -0x75c0(%rbp),%edx
    4320:	01 d0                	add    %edx,%eax
    4322:	48 98                	cltq
    4324:	48 8d 14 c5 00 00 00 	lea    0x0(,%rax,8),%rdx
    432b:	00 
    432c:	48 8b 85 c0 8a ff ff 	mov    -0x7540(%rbp),%rax
    4333:	48 01 d0             	add    %rdx,%rax
    4336:	48 8b 10             	mov    (%rax),%rdx
    4339:	b8 40 00 00 00       	mov    $0x40,%eax
    433e:	2b 85 28 8a ff ff    	sub    -0x75d8(%rbp),%eax
    4344:	89 c1                	mov    %eax,%ecx
    4346:	48 d3 ea             	shr    %cl,%rdx
    4349:	48 89 d1             	mov    %rdx,%rcx
    434c:	48 8b 85 18 8a ff ff 	mov    -0x75e8(%rbp),%rax
    4353:	8b 40 08             	mov    0x8(%rax),%eax
    4356:	0f af 85 34 8a ff ff 	imul   -0x75cc(%rbp),%eax
    435d:	8b 95 3c 8a ff ff    	mov    -0x75c4(%rbp),%edx
    4363:	01 d0                	add    %edx,%eax
    4365:	48 63 d0             	movslq %eax,%rdx
    4368:	8b bd 40 8a ff ff    	mov    -0x75c0(%rbp),%edi
    436e:	8b 85 2c 8a ff ff    	mov    -0x75d4(%rbp),%eax
    4374:	01 f8                	add    %edi,%eax
    4376:	83 c0 01             	add    $0x1,%eax
    4379:	48 98                	cltq
    437b:	48 0f af 85 80 8a ff 	imul   -0x7580(%rbp),%rax
    4382:	ff 
    4383:	48 01 d0             	add    %rdx,%rax
    4386:	48 31 ce             	xor    %rcx,%rsi
    4389:	48 89 f2             	mov    %rsi,%rdx
    438c:	48 89 94 c5 d0 8a ff 	mov    %rdx,-0x7530(%rbp,%rax,8)
    4393:	ff 
    4394:	83 85 40 8a ff ff 01 	addl   $0x1,-0x75c0(%rbp)
    439b:	8b 85 40 8a ff ff    	mov    -0x75c0(%rbp),%eax
    43a1:	3b 85 5c 8a ff ff    	cmp    -0x75a4(%rbp),%eax
    43a7:	0f 8c 53 fe ff ff    	jl     4200 <compute_A+0x218>
    43ad:	83 85 3c 8a ff ff 01 	addl   $0x1,-0x75c4(%rbp)
    43b4:	48 8b 85 18 8a ff ff 	mov    -0x75e8(%rbp),%rax
    43bb:	8b 40 08             	mov    0x8(%rax),%eax
    43be:	39 85 3c 8a ff ff    	cmp    %eax,-0x75c4(%rbp)
    43c4:	0f 8c 27 fe ff ff    	jl     41f1 <compute_A+0x209>
    43ca:	8b 85 34 8a ff ff    	mov    -0x75cc(%rbp),%eax
    43d0:	3b 85 38 8a ff ff    	cmp    -0x75c8(%rbp),%eax
    43d6:	0f 84 1d 02 00 00    	je     45f9 <compute_A+0x611>
    43dc:	8b 85 34 8a ff ff    	mov    -0x75cc(%rbp),%eax
    43e2:	0f af 85 5c 8a ff ff 	imul   -0x75a4(%rbp),%eax
    43e9:	48 8b 95 18 8a ff ff 	mov    -0x75e8(%rbp),%rdx
    43f0:	8b 52 08             	mov    0x8(%rdx),%edx
    43f3:	0f af c2             	imul   %edx,%eax
    43f6:	48 98                	cltq
    43f8:	48 8d 14 c5 00 00 00 	lea    0x0(,%rax,8),%rdx
    43ff:	00 
    4400:	48 8b 85 10 8a ff ff 	mov    -0x75f0(%rbp),%rax
    4407:	48 01 d0             	add    %rdx,%rax
    440a:	48 89 85 c8 8a ff ff 	mov    %rax,-0x7538(%rbp)
    4411:	c7 85 44 8a ff ff 00 	movl   $0x0,-0x75bc(%rbp)
    4418:	00 00 00 
    441b:	e9 c3 01 00 00       	jmp    45e3 <compute_A+0x5fb>
    4420:	c7 85 48 8a ff ff 00 	movl   $0x0,-0x75b8(%rbp)
    4427:	00 00 00 
    442a:	e9 9b 01 00 00       	jmp    45ca <compute_A+0x5e2>
    442f:	48 8b 85 18 8a ff ff 	mov    -0x75e8(%rbp),%rax
    4436:	8b 40 08             	mov    0x8(%rax),%eax
    4439:	0f af 85 38 8a ff ff 	imul   -0x75c8(%rbp),%eax
    4440:	8b 95 44 8a ff ff    	mov    -0x75bc(%rbp),%edx
    4446:	01 d0                	add    %edx,%eax
    4448:	48 63 d0             	movslq %eax,%rdx
    444b:	8b 8d 48 8a ff ff    	mov    -0x75b8(%rbp),%ecx
    4451:	8b 85 2c 8a ff ff    	mov    -0x75d4(%rbp),%eax
    4457:	01 c8                	add    %ecx,%eax
    4459:	48 98                	cltq
    445b:	48 0f af 85 80 8a ff 	imul   -0x7580(%rbp),%rax
    4462:	ff 
    4463:	48 01 d0             	add    %rdx,%rax
    4466:	48 8b b4 c5 d0 8a ff 	mov    -0x7530(%rbp,%rax,8),%rsi
    446d:	ff 
    446e:	8b 85 44 8a ff ff    	mov    -0x75bc(%rbp),%eax
    4474:	0f af 85 5c 8a ff ff 	imul   -0x75a4(%rbp),%eax
    447b:	8b 95 48 8a ff ff    	mov    -0x75b8(%rbp),%edx
    4481:	01 d0                	add    %edx,%eax
    4483:	48 98                	cltq
    4485:	48 8d 14 c5 00 00 00 	lea    0x0(,%rax,8),%rdx
    448c:	00 
    448d:	48 8b 85 c8 8a ff ff 	mov    -0x7538(%rbp),%rax
    4494:	48 01 d0             	add    %rdx,%rax
    4497:	48 8b 10             	mov    (%rax),%rdx
    449a:	8b 85 28 8a ff ff    	mov    -0x75d8(%rbp),%eax
    44a0:	89 c1                	mov    %eax,%ecx
    44a2:	48 d3 e2             	shl    %cl,%rdx
    44a5:	48 89 d1             	mov    %rdx,%rcx
    44a8:	48 8b 85 18 8a ff ff 	mov    -0x75e8(%rbp),%rax
    44af:	8b 40 08             	mov    0x8(%rax),%eax
    44b2:	0f af 85 38 8a ff ff 	imul   -0x75c8(%rbp),%eax
    44b9:	8b 95 44 8a ff ff    	mov    -0x75bc(%rbp),%edx
    44bf:	01 d0                	add    %edx,%eax
    44c1:	48 63 d0             	movslq %eax,%rdx
    44c4:	8b bd 48 8a ff ff    	mov    -0x75b8(%rbp),%edi
    44ca:	8b 85 2c 8a ff ff    	mov    -0x75d4(%rbp),%eax
    44d0:	01 f8                	add    %edi,%eax
    44d2:	48 98                	cltq
    44d4:	48 0f af 85 80 8a ff 	imul   -0x7580(%rbp),%rax
    44db:	ff 
    44dc:	48 01 d0             	add    %rdx,%rax
    44df:	48 31 ce             	xor    %rcx,%rsi
    44e2:	48 89 f2             	mov    %rsi,%rdx
    44e5:	48 89 94 c5 d0 8a ff 	mov    %rdx,-0x7530(%rbp,%rax,8)
    44ec:	ff 
    44ed:	83 bd 28 8a ff ff 00 	cmpl   $0x0,-0x75d8(%rbp)
    44f4:	0f 8e c9 00 00 00    	jle    45c3 <compute_A+0x5db>
    44fa:	48 8b 85 18 8a ff ff 	mov    -0x75e8(%rbp),%rax
    4501:	8b 40 08             	mov    0x8(%rax),%eax
    4504:	0f af 85 38 8a ff ff 	imul   -0x75c8(%rbp),%eax
    450b:	8b 95 44 8a ff ff    	mov    -0x75bc(%rbp),%edx
    4511:	01 d0                	add    %edx,%eax
    4513:	48 63 d0             	movslq %eax,%rdx
    4516:	8b 8d 48 8a ff ff    	mov    -0x75b8(%rbp),%ecx
    451c:	8b 85 2c 8a ff ff    	mov    -0x75d4(%rbp),%eax
    4522:	01 c8                	add    %ecx,%eax
    4524:	83 c0 01             	add    $0x1,%eax
    4527:	48 98                	cltq
    4529:	48 0f af 85 80 8a ff 	imul   -0x7580(%rbp),%rax
    4530:	ff 
    4531:	48 01 d0             	add    %rdx,%rax
    4534:	48 8b b4 c5 d0 8a ff 	mov    -0x7530(%rbp,%rax,8),%rsi
    453b:	ff 
    453c:	8b 85 44 8a ff ff    	mov    -0x75bc(%rbp),%eax
    4542:	0f af 85 5c 8a ff ff 	imul   -0x75a4(%rbp),%eax
    4549:	8b 95 48 8a ff ff    	mov    -0x75b8(%rbp),%edx
    454f:	01 d0                	add    %edx,%eax
    4551:	48 98                	cltq
    4553:	48 8d 14 c5 00 00 00 	lea    0x0(,%rax,8),%rdx
    455a:	00 
    455b:	48 8b 85 c8 8a ff ff 	mov    -0x7538(%rbp),%rax
    4562:	48 01 d0             	add    %rdx,%rax
    4565:	48 8b 10             	mov    (%rax),%rdx
    4568:	b8 40 00 00 00       	mov    $0x40,%eax
    456d:	2b 85 28 8a ff ff    	sub    -0x75d8(%rbp),%eax
    4573:	89 c1                	mov    %eax,%ecx
    4575:	48 d3 ea             	shr    %cl,%rdx
    4578:	48 89 d1             	mov    %rdx,%rcx
    457b:	48 8b 85 18 8a ff ff 	mov    -0x75e8(%rbp),%rax
    4582:	8b 40 08             	mov    0x8(%rax),%eax
    4585:	0f af 85 38 8a ff ff 	imul   -0x75c8(%rbp),%eax
    458c:	8b 95 44 8a ff ff    	mov    -0x75bc(%rbp),%edx
    4592:	01 d0                	add    %edx,%eax
    4594:	48 63 d0             	movslq %eax,%rdx
    4597:	8b bd 48 8a ff ff    	mov    -0x75b8(%rbp),%edi
    459d:	8b 85 2c 8a ff ff    	mov    -0x75d4(%rbp),%eax
    45a3:	01 f8                	add    %edi,%eax
    45a5:	83 c0 01             	add    $0x1,%eax
    45a8:	48 98                	cltq
    45aa:	48 0f af 85 80 8a ff 	imul   -0x7580(%rbp),%rax
    45b1:	ff 
    45b2:	48 01 d0             	add    %rdx,%rax
    45b5:	48 31 ce             	xor    %rcx,%rsi
    45b8:	48 89 f2             	mov    %rsi,%rdx
    45bb:	48 89 94 c5 d0 8a ff 	mov    %rdx,-0x7530(%rbp,%rax,8)
    45c2:	ff 
    45c3:	83 85 48 8a ff ff 01 	addl   $0x1,-0x75b8(%rbp)
    45ca:	8b 85 48 8a ff ff    	mov    -0x75b8(%rbp),%eax
    45d0:	3b 85 5c 8a ff ff    	cmp    -0x75a4(%rbp),%eax
    45d6:	0f 8c 53 fe ff ff    	jl     442f <compute_A+0x447>
    45dc:	83 85 44 8a ff ff 01 	addl   $0x1,-0x75bc(%rbp)
    45e3:	48 8b 85 18 8a ff ff 	mov    -0x75e8(%rbp),%rax
    45ea:	8b 40 08             	mov    0x8(%rax),%eax
    45ed:	39 85 44 8a ff ff    	cmp    %eax,-0x75bc(%rbp)
    45f3:	0f 8c 27 fe ff ff    	jl     4420 <compute_A+0x438>
    45f9:	83 85 28 8a ff ff 04 	addl   $0x4,-0x75d8(%rbp)
    4600:	83 bd 28 8a ff ff 40 	cmpl   $0x40,-0x75d8(%rbp)
    4607:	75 11                	jne    461a <compute_A+0x632>
    4609:	83 85 2c 8a ff ff 01 	addl   $0x1,-0x75d4(%rbp)
    4610:	c7 85 28 8a ff ff 00 	movl   $0x0,-0x75d8(%rbp)
    4617:	00 00 00 
    461a:	83 ad 38 8a ff ff 01 	subl   $0x1,-0x75c8(%rbp)
    4621:	8b 85 38 8a ff ff    	mov    -0x75c8(%rbp),%eax
    4627:	3b 85 34 8a ff ff    	cmp    -0x75cc(%rbp),%eax
    462d:	0f 8d 7a fb ff ff    	jge    41ad <compute_A+0x1c5>
    4633:	83 85 34 8a ff ff 01 	addl   $0x1,-0x75cc(%rbp)
    463a:	48 8b 85 18 8a ff ff 	mov    -0x75e8(%rbp),%rax
    4641:	8b 40 0c             	mov    0xc(%rax),%eax
    4644:	39 85 34 8a ff ff    	cmp    %eax,-0x75cc(%rbp)
    464a:	0f 8c 45 fb ff ff    	jl     4195 <compute_A+0x1ad>
    4650:	48 c7 85 60 8a ff ff 	movq   $0x0,-0x75a0(%rbp)
    4657:	00 00 00 00 
    465b:	eb 29                	jmp    4686 <compute_A+0x69e>
    465d:	48 8b 85 60 8a ff ff 	mov    -0x75a0(%rbp),%rax
    4664:	48 8d 14 c5 00 00 00 	lea    0x0(,%rax,8),%rdx
    466b:	00 
    466c:	48 8d 85 d0 8a ff ff 	lea    -0x7530(%rbp),%rax
    4673:	48 01 d0             	add    %rdx,%rax
    4676:	48 89 c7             	mov    %rax,%rdi
    4679:	e8 72 f4 ff ff       	call   3af0 <transpose_16x16_nibbles>
    467e:	48 83 85 60 8a ff ff 	addq   $0x10,-0x75a0(%rbp)
    4685:	10 
    4686:	48 8b 85 18 8a ff ff 	mov    -0x75e8(%rbp),%rax
    468d:	8b 10                	mov    (%rax),%edx
    468f:	48 8b 85 18 8a ff ff 	mov    -0x75e8(%rbp),%rax
    4696:	8b 40 0c             	mov    0xc(%rax),%eax
    4699:	8d 48 01             	lea    0x1(%rax),%ecx
    469c:	48 8b 85 18 8a ff ff 	mov    -0x75e8(%rbp),%rax
    46a3:	8b 40 0c             	mov    0xc(%rax),%eax
    46a6:	0f af c1             	imul   %ecx,%eax
    46a9:	89 c1                	mov    %eax,%ecx
    46ab:	c1 e9 1f             	shr    $0x1f,%ecx
    46ae:	01 c8                	add    %ecx,%eax
    46b0:	d1 f8                	sar    $1,%eax
    46b2:	01 d0                	add    %edx,%eax
    46b4:	83 c0 0f             	add    $0xf,%eax
    46b7:	8d 50 0f             	lea    0xf(%rax),%edx
    46ba:	85 c0                	test   %eax,%eax
    46bc:	0f 48 c2             	cmovs  %edx,%eax
    46bf:	c1 f8 04             	sar    $0x4,%eax
    46c2:	48 98                	cltq
    46c4:	48 0f af 85 80 8a ff 	imul   -0x7580(%rbp),%rax
    46cb:	ff 
    46cc:	48 39 85 60 8a ff ff 	cmp    %rax,-0x75a0(%rbp)
    46d3:	72 88                	jb     465d <compute_A+0x675>
    46d5:	48 c7 45 d0 00 00 00 	movq   $0x0,-0x30(%rbp)
    46dc:	00 
    46dd:	48 c7 45 d8 00 00 00 	movq   $0x0,-0x28(%rbp)
    46e4:	00 
    46e5:	48 c7 85 68 8a ff ff 	movq   $0x0,-0x7598(%rbp)
    46ec:	00 00 00 00 
    46f0:	e9 f0 00 00 00       	jmp    47e5 <compute_A+0x7fd>
    46f5:	48 8b 85 18 8a ff ff 	mov    -0x75e8(%rbp),%rax
    46fc:	48 8b 50 18          	mov    0x18(%rax),%rdx
    4700:	48 8b 85 68 8a ff ff 	mov    -0x7598(%rbp),%rax
    4707:	48 01 d0             	add    %rdx,%rax
    470a:	0f b6 00             	movzbl (%rax),%eax
    470d:	0f b6 c0             	movzbl %al,%eax
    4710:	48 8b 95 68 8a ff ff 	mov    -0x7598(%rbp),%rdx
    4717:	48 8d 1c 95 00 00 00 	lea    0x0(,%rdx,4),%rbx
    471e:	00 
    471f:	be 01 00 00 00       	mov    $0x1,%esi
    4724:	89 c7                	mov    %eax,%edi
    4726:	e8 6c d4 ff ff       	call   1b97 <mul_f>
    472b:	88 44 1d d0          	mov    %al,-0x30(%rbp,%rbx,1)
    472f:	48 8b 85 18 8a ff ff 	mov    -0x75e8(%rbp),%rax
    4736:	48 8b 50 18          	mov    0x18(%rax),%rdx
    473a:	48 8b 85 68 8a ff ff 	mov    -0x7598(%rbp),%rax
    4741:	48 01 d0             	add    %rdx,%rax
    4744:	0f b6 00             	movzbl (%rax),%eax
    4747:	0f b6 c0             	movzbl %al,%eax
    474a:	48 8b 95 68 8a ff ff 	mov    -0x7598(%rbp),%rdx
    4751:	48 c1 e2 02          	shl    $0x2,%rdx
    4755:	48 8d 5a 01          	lea    0x1(%rdx),%rbx
    4759:	be 02 00 00 00       	mov    $0x2,%esi
    475e:	89 c7                	mov    %eax,%edi
    4760:	e8 32 d4 ff ff       	call   1b97 <mul_f>
    4765:	88 44 1d d0          	mov    %al,-0x30(%rbp,%rbx,1)
    4769:	48 8b 85 18 8a ff ff 	mov    -0x75e8(%rbp),%rax
    4770:	48 8b 50 18          	mov    0x18(%rax),%rdx
    4774:	48 8b 85 68 8a ff ff 	mov    -0x7598(%rbp),%rax
    477b:	48 01 d0             	add    %rdx,%rax
    477e:	0f b6 00             	movzbl (%rax),%eax
    4781:	0f b6 c0             	movzbl %al,%eax
    4784:	48 8b 95 68 8a ff ff 	mov    -0x7598(%rbp),%rdx
    478b:	48 c1 e2 02          	shl    $0x2,%rdx
    478f:	48 8d 5a 02          	lea    0x2(%rdx),%rbx
    4793:	be 04 00 00 00       	mov    $0x4,%esi
    4798:	89 c7                	mov    %eax,%edi
    479a:	e8 f8 d3 ff ff       	call   1b97 <mul_f>
    479f:	88 44 1d d0          	mov    %al,-0x30(%rbp,%rbx,1)
    47a3:	48 8b 85 18 8a ff ff 	mov    -0x75e8(%rbp),%rax
    47aa:	48 8b 50 18          	mov    0x18(%rax),%rdx
    47ae:	48 8b 85 68 8a ff ff 	mov    -0x7598(%rbp),%rax
    47b5:	48 01 d0             	add    %rdx,%rax
    47b8:	0f b6 00             	movzbl (%rax),%eax
    47bb:	0f b6 c0             	movzbl %al,%eax
    47be:	48 8b 95 68 8a ff ff 	mov    -0x7598(%rbp),%rdx
    47c5:	48 c1 e2 02          	shl    $0x2,%rdx
    47c9:	48 8d 5a 03          	lea    0x3(%rdx),%rbx
    47cd:	be 08 00 00 00       	mov    $0x8,%esi
    47d2:	89 c7                	mov    %eax,%edi
    47d4:	e8 be d3 ff ff       	call   1b97 <mul_f>
    47d9:	88 44 1d d0          	mov    %al,-0x30(%rbp,%rbx,1)
    47dd:	48 83 85 68 8a ff ff 	addq   $0x1,-0x7598(%rbp)
    47e4:	01 
    47e5:	48 83 bd 68 8a ff ff 	cmpq   $0x3,-0x7598(%rbp)
    47ec:	03 
    47ed:	0f 86 02 ff ff ff    	jbe    46f5 <compute_A+0x70d>
    47f3:	48 b8 11 11 11 11 11 	movabs $0x1111111111111111,%rax
    47fa:	11 11 11 
    47fd:	48 89 85 90 8a ff ff 	mov    %rax,-0x7570(%rbp)
    4804:	48 c7 85 70 8a ff ff 	movq   $0x0,-0x7590(%rbp)
    480b:	00 00 00 00 
    480f:	e9 84 02 00 00       	jmp    4a98 <compute_A+0xab0>
    4814:	48 8b 85 18 8a ff ff 	mov    -0x75e8(%rbp),%rax
    481b:	8b 00                	mov    (%rax),%eax
    481d:	89 85 4c 8a ff ff    	mov    %eax,-0x75b4(%rbp)
    4823:	e9 2e 02 00 00       	jmp    4a56 <compute_A+0xa6e>
    4828:	8b 85 4c 8a ff ff    	mov    -0x75b4(%rbp),%eax
    482e:	8d 50 0f             	lea    0xf(%rax),%edx
    4831:	85 c0                	test   %eax,%eax
    4833:	0f 48 c2             	cmovs  %edx,%eax
    4836:	c1 f8 04             	sar    $0x4,%eax
    4839:	48 98                	cltq
    483b:	48 0f af 85 80 8a ff 	imul   -0x7580(%rbp),%rax
    4842:	ff 
    4843:	48 8b 95 70 8a ff ff 	mov    -0x7590(%rbp),%rdx
    484a:	48 8d 0c 10          	lea    (%rax,%rdx,1),%rcx
    484e:	8b 95 4c 8a ff ff    	mov    -0x75b4(%rbp),%edx
    4854:	89 d0                	mov    %edx,%eax
    4856:	c1 f8 1f             	sar    $0x1f,%eax
    4859:	c1 e8 1c             	shr    $0x1c,%eax
    485c:	01 c2                	add    %eax,%edx
    485e:	83 e2 0f             	and    $0xf,%edx
    4861:	29 c2                	sub    %eax,%edx
    4863:	89 d0                	mov    %edx,%eax
    4865:	48 98                	cltq
    4867:	48 01 c8             	add    %rcx,%rax
    486a:	48 89 85 98 8a ff ff 	mov    %rax,-0x7568(%rbp)
    4871:	48 8b 85 98 8a ff ff 	mov    -0x7568(%rbp),%rax
    4878:	48 8b 84 c5 d0 8a ff 	mov    -0x7530(%rbp,%rax,8),%rax
    487f:	ff 
    4880:	48 23 85 90 8a ff ff 	and    -0x7570(%rbp),%rax
    4887:	48 89 85 a0 8a ff ff 	mov    %rax,-0x7560(%rbp)
    488e:	48 8b 85 98 8a ff ff 	mov    -0x7568(%rbp),%rax
    4895:	48 8b 84 c5 d0 8a ff 	mov    -0x7530(%rbp,%rax,8),%rax
    489c:	ff 
    489d:	48 d1 e8             	shr    $1,%rax
    48a0:	48 23 85 90 8a ff ff 	and    -0x7570(%rbp),%rax
    48a7:	48 89 85 a8 8a ff ff 	mov    %rax,-0x7558(%rbp)
    48ae:	48 8b 85 98 8a ff ff 	mov    -0x7568(%rbp),%rax
    48b5:	48 8b 84 c5 d0 8a ff 	mov    -0x7530(%rbp,%rax,8),%rax
    48bc:	ff 
    48bd:	48 c1 e8 02          	shr    $0x2,%rax
    48c1:	48 23 85 90 8a ff ff 	and    -0x7570(%rbp),%rax
    48c8:	48 89 85 b0 8a ff ff 	mov    %rax,-0x7550(%rbp)
    48cf:	48 8b 85 98 8a ff ff 	mov    -0x7568(%rbp),%rax
    48d6:	48 8b 84 c5 d0 8a ff 	mov    -0x7530(%rbp,%rax,8),%rax
    48dd:	ff 
    48de:	48 c1 e8 03          	shr    $0x3,%rax
    48e2:	48 23 85 90 8a ff ff 	and    -0x7570(%rbp),%rax
    48e9:	48 89 85 b8 8a ff ff 	mov    %rax,-0x7548(%rbp)
    48f0:	48 c7 85 78 8a ff ff 	movq   $0x0,-0x7588(%rbp)
    48f7:	00 00 00 00 
    48fb:	e9 41 01 00 00       	jmp    4a41 <compute_A+0xa59>
    4900:	8b 85 4c 8a ff ff    	mov    -0x75b4(%rbp),%eax
    4906:	48 98                	cltq
    4908:	48 8b 95 78 8a ff ff 	mov    -0x7588(%rbp),%rdx
    490f:	48 01 c2             	add    %rax,%rdx
    4912:	48 8b 85 18 8a ff ff 	mov    -0x75e8(%rbp),%rax
    4919:	8b 00                	mov    (%rax),%eax
    491b:	48 98                	cltq
    491d:	48 29 c2             	sub    %rax,%rdx
    4920:	48 89 d0             	mov    %rdx,%rax
    4923:	48 c1 e8 04          	shr    $0x4,%rax
    4927:	48 89 c2             	mov    %rax,%rdx
    492a:	48 0f af 95 80 8a ff 	imul   -0x7580(%rbp),%rdx
    4931:	ff 
    4932:	48 8b 8d 70 8a ff ff 	mov    -0x7590(%rbp),%rcx
    4939:	48 01 d1             	add    %rdx,%rcx
    493c:	8b 95 4c 8a ff ff    	mov    -0x75b4(%rbp),%edx
    4942:	48 63 d2             	movslq %edx,%rdx
    4945:	48 8b b5 78 8a ff ff 	mov    -0x7588(%rbp),%rsi
    494c:	48 01 d6             	add    %rdx,%rsi
    494f:	48 8b 95 18 8a ff ff 	mov    -0x75e8(%rbp),%rdx
    4956:	8b 12                	mov    (%rdx),%edx
    4958:	48 63 d2             	movslq %edx,%rdx
    495b:	48 29 d6             	sub    %rdx,%rsi
    495e:	48 89 f2             	mov    %rsi,%rdx
    4961:	83 e2 0f             	and    $0xf,%edx
    4964:	48 01 ca             	add    %rcx,%rdx
    4967:	48 8b b4 d5 d0 8a ff 	mov    -0x7530(%rbp,%rdx,8),%rsi
    496e:	ff 
    496f:	48 8b 95 78 8a ff ff 	mov    -0x7588(%rbp),%rdx
    4976:	48 c1 e2 02          	shl    $0x2,%rdx
    497a:	0f b6 54 15 d0       	movzbl -0x30(%rbp,%rdx,1),%edx
    497f:	0f b6 d2             	movzbl %dl,%edx
    4982:	48 89 d1             	mov    %rdx,%rcx
    4985:	48 0f af 8d a0 8a ff 	imul   -0x7560(%rbp),%rcx
    498c:	ff 
    498d:	48 8b 95 78 8a ff ff 	mov    -0x7588(%rbp),%rdx
    4994:	48 c1 e2 02          	shl    $0x2,%rdx
    4998:	48 83 c2 01          	add    $0x1,%rdx
    499c:	0f b6 54 15 d0       	movzbl -0x30(%rbp,%rdx,1),%edx
    49a1:	0f b6 d2             	movzbl %dl,%edx
    49a4:	48 0f af 95 a8 8a ff 	imul   -0x7558(%rbp),%rdx
    49ab:	ff 
    49ac:	48 31 d1             	xor    %rdx,%rcx
    49af:	48 8b 95 78 8a ff ff 	mov    -0x7588(%rbp),%rdx
    49b6:	48 c1 e2 02          	shl    $0x2,%rdx
    49ba:	48 83 c2 02          	add    $0x2,%rdx
    49be:	0f b6 54 15 d0       	movzbl -0x30(%rbp,%rdx,1),%edx
    49c3:	0f b6 d2             	movzbl %dl,%edx
    49c6:	48 0f af 95 b0 8a ff 	imul   -0x7550(%rbp),%rdx
    49cd:	ff 
    49ce:	48 31 d1             	xor    %rdx,%rcx
    49d1:	48 8b 95 78 8a ff ff 	mov    -0x7588(%rbp),%rdx
    49d8:	48 c1 e2 02          	shl    $0x2,%rdx
    49dc:	48 83 c2 03          	add    $0x3,%rdx
    49e0:	0f b6 54 15 d0       	movzbl -0x30(%rbp,%rdx,1),%edx
    49e5:	0f b6 d2             	movzbl %dl,%edx
    49e8:	48 0f af 95 b8 8a ff 	imul   -0x7548(%rbp),%rdx
    49ef:	ff 
    49f0:	48 31 ca             	xor    %rcx,%rdx
    49f3:	48 0f af 85 80 8a ff 	imul   -0x7580(%rbp),%rax
    49fa:	ff 
    49fb:	48 8b 8d 70 8a ff ff 	mov    -0x7590(%rbp),%rcx
    4a02:	48 01 c1             	add    %rax,%rcx
    4a05:	8b 85 4c 8a ff ff    	mov    -0x75b4(%rbp),%eax
    4a0b:	48 98                	cltq
    4a0d:	48 8b bd 78 8a ff ff 	mov    -0x7588(%rbp),%rdi
    4a14:	48 01 c7             	add    %rax,%rdi
    4a17:	48 8b 85 18 8a ff ff 	mov    -0x75e8(%rbp),%rax
    4a1e:	8b 00                	mov    (%rax),%eax
    4a20:	48 98                	cltq
    4a22:	48 29 c7             	sub    %rax,%rdi
    4a25:	48 89 f8             	mov    %rdi,%rax
    4a28:	83 e0 0f             	and    $0xf,%eax
    4a2b:	48 01 c8             	add    %rcx,%rax
    4a2e:	48 31 f2             	xor    %rsi,%rdx
    4a31:	48 89 94 c5 d0 8a ff 	mov    %rdx,-0x7530(%rbp,%rax,8)
    4a38:	ff 
    4a39:	48 83 85 78 8a ff ff 	addq   $0x1,-0x7588(%rbp)
    4a40:	01 
    4a41:	48 83 bd 78 8a ff ff 	cmpq   $0x3,-0x7588(%rbp)
    4a48:	03 
    4a49:	0f 86 b1 fe ff ff    	jbe    4900 <compute_A+0x918>
    4a4f:	83 85 4c 8a ff ff 01 	addl   $0x1,-0x75b4(%rbp)
    4a56:	48 8b 85 18 8a ff ff 	mov    -0x75e8(%rbp),%rax
    4a5d:	8b 10                	mov    (%rax),%edx
    4a5f:	48 8b 85 18 8a ff ff 	mov    -0x75e8(%rbp),%rax
    4a66:	8b 40 0c             	mov    0xc(%rax),%eax
    4a69:	8d 48 01             	lea    0x1(%rax),%ecx
    4a6c:	48 8b 85 18 8a ff ff 	mov    -0x75e8(%rbp),%rax
    4a73:	8b 40 0c             	mov    0xc(%rax),%eax
    4a76:	0f af c1             	imul   %ecx,%eax
    4a79:	89 c1                	mov    %eax,%ecx
    4a7b:	c1 e9 1f             	shr    $0x1f,%ecx
    4a7e:	01 c8                	add    %ecx,%eax
    4a80:	d1 f8                	sar    $1,%eax
    4a82:	01 d0                	add    %edx,%eax
    4a84:	39 85 4c 8a ff ff    	cmp    %eax,-0x75b4(%rbp)
    4a8a:	0f 8c 98 fd ff ff    	jl     4828 <compute_A+0x840>
    4a90:	48 83 85 70 8a ff ff 	addq   $0x10,-0x7590(%rbp)
    4a97:	10 
    4a98:	48 8b 85 70 8a ff ff 	mov    -0x7590(%rbp),%rax
    4a9f:	48 3b 85 80 8a ff ff 	cmp    -0x7580(%rbp),%rax
    4aa6:	0f 82 68 fd ff ff    	jb     4814 <compute_A+0x82c>
    4aac:	c7 85 50 8a ff ff 00 	movl   $0x0,-0x75b0(%rbp)
    4ab3:	00 00 00 
    4ab6:	e9 2a 01 00 00       	jmp    4be5 <compute_A+0xbfd>
    4abb:	c7 85 54 8a ff ff 00 	movl   $0x0,-0x75ac(%rbp)
    4ac2:	00 00 00 
    4ac5:	e9 f1 00 00 00       	jmp    4bbb <compute_A+0xbd3>
    4aca:	c7 85 58 8a ff ff 00 	movl   $0x0,-0x75a8(%rbp)
    4ad1:	00 00 00 
    4ad4:	e9 bc 00 00 00       	jmp    4b95 <compute_A+0xbad>
    4ad9:	48 8b 85 18 8a ff ff 	mov    -0x75e8(%rbp),%rax
    4ae0:	8b 50 0c             	mov    0xc(%rax),%edx
    4ae3:	48 8b 85 18 8a ff ff 	mov    -0x75e8(%rbp),%rax
    4aea:	8b 40 08             	mov    0x8(%rax),%eax
    4aed:	0f af c2             	imul   %edx,%eax
    4af0:	2b 85 54 8a ff ff    	sub    -0x75ac(%rbp),%eax
    4af6:	ba 10 00 00 00       	mov    $0x10,%edx
    4afb:	83 f8 10             	cmp    $0x10,%eax
    4afe:	0f 4f c2             	cmovg  %edx,%eax
    4b01:	48 8b 95 18 8a ff ff 	mov    -0x75e8(%rbp),%rdx
    4b08:	8b 4a 0c             	mov    0xc(%rdx),%ecx
    4b0b:	48 8b 95 18 8a ff ff 	mov    -0x75e8(%rbp),%rdx
    4b12:	8b 52 08             	mov    0x8(%rdx),%edx
    4b15:	0f af d1             	imul   %ecx,%edx
    4b18:	8d 4a 01             	lea    0x1(%rdx),%ecx
    4b1b:	8b b5 50 8a ff ff    	mov    -0x75b0(%rbp),%esi
    4b21:	8b 95 58 8a ff ff    	mov    -0x75a8(%rbp),%edx
    4b27:	01 f2                	add    %esi,%edx
    4b29:	0f af d1             	imul   %ecx,%edx
    4b2c:	48 63 ca             	movslq %edx,%rcx
    4b2f:	8b 95 54 8a ff ff    	mov    -0x75ac(%rbp),%edx
    4b35:	48 63 d2             	movslq %edx,%rdx
    4b38:	48 01 d1             	add    %rdx,%rcx
    4b3b:	48 8b 95 08 8a ff ff 	mov    -0x75f8(%rbp),%rdx
    4b42:	48 8d 34 11          	lea    (%rcx,%rdx,1),%rsi
    4b46:	8b 95 50 8a ff ff    	mov    -0x75b0(%rbp),%edx
    4b4c:	48 63 d2             	movslq %edx,%rdx
    4b4f:	48 0f af 95 80 8a ff 	imul   -0x7580(%rbp),%rdx
    4b56:	ff 
    4b57:	48 89 d1             	mov    %rdx,%rcx
    4b5a:	48 c1 e9 04          	shr    $0x4,%rcx
    4b5e:	8b 95 54 8a ff ff    	mov    -0x75ac(%rbp),%edx
    4b64:	48 63 d2             	movslq %edx,%rdx
    4b67:	48 01 d1             	add    %rdx,%rcx
    4b6a:	8b 95 58 8a ff ff    	mov    -0x75a8(%rbp),%edx
    4b70:	48 63 d2             	movslq %edx,%rdx
    4b73:	48 01 d1             	add    %rdx,%rcx
    4b76:	48 8d 95 d0 8a ff ff 	lea    -0x7530(%rbp),%rdx
    4b7d:	48 c1 e1 03          	shl    $0x3,%rcx
    4b81:	48 01 d1             	add    %rdx,%rcx
    4b84:	89 c2                	mov    %eax,%edx
    4b86:	48 89 cf             	mov    %rcx,%rdi
    4b89:	e8 1d e9 ff ff       	call   34ab <decode>
    4b8e:	83 85 58 8a ff ff 01 	addl   $0x1,-0x75a8(%rbp)
    4b95:	8b 95 58 8a ff ff    	mov    -0x75a8(%rbp),%edx
    4b9b:	8b 85 50 8a ff ff    	mov    -0x75b0(%rbp),%eax
    4ba1:	01 c2                	add    %eax,%edx
    4ba3:	48 8b 85 18 8a ff ff 	mov    -0x75e8(%rbp),%rax
    4baa:	8b 00                	mov    (%rax),%eax
    4bac:	39 c2                	cmp    %eax,%edx
    4bae:	0f 8c 25 ff ff ff    	jl     4ad9 <compute_A+0xaf1>
    4bb4:	83 85 54 8a ff ff 10 	addl   $0x10,-0x75ac(%rbp)
    4bbb:	48 8b 85 18 8a ff ff 	mov    -0x75e8(%rbp),%rax
    4bc2:	8b 50 0c             	mov    0xc(%rax),%edx
    4bc5:	48 8b 85 18 8a ff ff 	mov    -0x75e8(%rbp),%rax
    4bcc:	8b 40 08             	mov    0x8(%rax),%eax
    4bcf:	0f af c2             	imul   %edx,%eax
    4bd2:	39 85 54 8a ff ff    	cmp    %eax,-0x75ac(%rbp)
    4bd8:	0f 8c ec fe ff ff    	jl     4aca <compute_A+0xae2>
    4bde:	83 85 50 8a ff ff 10 	addl   $0x10,-0x75b0(%rbp)
    4be5:	48 8b 85 18 8a ff ff 	mov    -0x75e8(%rbp),%rax
    4bec:	8b 00                	mov    (%rax),%eax
    4bee:	39 85 50 8a ff ff    	cmp    %eax,-0x75b0(%rbp)
    4bf4:	0f 8c c1 fe ff ff    	jl     4abb <compute_A+0xad3>
    4bfa:	90                   	nop
    4bfb:	48 8b 45 e8          	mov    -0x18(%rbp),%rax
    4bff:	64 48 33 04 25 28 00 	xor    %fs:0x28,%rax
    4c06:	00 00 
    4c08:	74 05                	je     4c0f <compute_A+0xc27>
    4c0a:	e8 c1 c5 ff ff       	call   11d0 <__stack_chk_fail@plt>
    4c0f:	48 81 c4 f8 75 00 00 	add    $0x75f8,%rsp
    4c16:	5b                   	pop    %rbx
    4c17:	5d                   	pop    %rbp
    4c18:	c3                   	ret

0000000000004c19 <unpack_m_vecs>:
    4c19:	f3 0f 1e fa          	endbr64
    4c1d:	55                   	push   %rbp
    4c1e:	48 89 e5             	mov    %rsp,%rbp
    4c21:	48 83 c4 80          	add    $0xffffffffffffff80,%rsp
    4c25:	48 89 7d 98          	mov    %rdi,-0x68(%rbp)
    4c29:	48 89 75 90          	mov    %rsi,-0x70(%rbp)
    4c2d:	89 55 8c             	mov    %edx,-0x74(%rbp)
    4c30:	89 4d 88             	mov    %ecx,-0x78(%rbp)
    4c33:	64 48 8b 04 25 28 00 	mov    %fs:0x28,%rax
    4c3a:	00 00 
    4c3c:	48 89 45 f8          	mov    %rax,-0x8(%rbp)
    4c40:	31 c0                	xor    %eax,%eax
    4c42:	8b 45 88             	mov    -0x78(%rbp),%eax
    4c45:	83 c0 0f             	add    $0xf,%eax
    4c48:	8d 50 0f             	lea    0xf(%rax),%edx
    4c4b:	85 c0                	test   %eax,%eax
    4c4d:	0f 48 c2             	cmovs  %edx,%eax
    4c50:	c1 f8 04             	sar    $0x4,%eax
    4c53:	89 45 a4             	mov    %eax,-0x5c(%rbp)
    4c56:	48 8b 45 90          	mov    -0x70(%rbp),%rax
    4c5a:	48 89 45 a8          	mov    %rax,-0x58(%rbp)
    4c5e:	48 c7 45 b0 00 00 00 	movq   $0x0,-0x50(%rbp)
    4c65:	00 
    4c66:	48 c7 45 b8 00 00 00 	movq   $0x0,-0x48(%rbp)
    4c6d:	00 
    4c6e:	48 c7 45 c0 00 00 00 	movq   $0x0,-0x40(%rbp)
    4c75:	00 
    4c76:	48 c7 45 c8 00 00 00 	movq   $0x0,-0x38(%rbp)
    4c7d:	00 
    4c7e:	48 c7 45 d0 00 00 00 	movq   $0x0,-0x30(%rbp)
    4c85:	00 
    4c86:	48 c7 45 d8 00 00 00 	movq   $0x0,-0x28(%rbp)
    4c8d:	00 
    4c8e:	48 c7 45 e0 00 00 00 	movq   $0x0,-0x20(%rbp)
    4c95:	00 
    4c96:	48 c7 45 e8 00 00 00 	movq   $0x0,-0x18(%rbp)
    4c9d:	00 
    4c9e:	48 c7 45 f0 00 00 00 	movq   $0x0,-0x10(%rbp)
    4ca5:	00 
    4ca6:	8b 45 8c             	mov    -0x74(%rbp),%eax
    4ca9:	83 e8 01             	sub    $0x1,%eax
    4cac:	89 45 a0             	mov    %eax,-0x60(%rbp)
    4caf:	eb 6f                	jmp    4d20 <unpack_m_vecs+0x107>
    4cb1:	8b 45 88             	mov    -0x78(%rbp),%eax
    4cb4:	89 c2                	mov    %eax,%edx
    4cb6:	c1 ea 1f             	shr    $0x1f,%edx
    4cb9:	01 d0                	add    %edx,%eax
    4cbb:	d1 f8                	sar    $1,%eax
    4cbd:	48 63 d0             	movslq %eax,%rdx
    4cc0:	8b 45 a0             	mov    -0x60(%rbp),%eax
    4cc3:	0f af 45 88          	imul   -0x78(%rbp),%eax
    4cc7:	89 c1                	mov    %eax,%ecx
    4cc9:	c1 e9 1f             	shr    $0x1f,%ecx
    4ccc:	01 c8                	add    %ecx,%eax
    4cce:	d1 f8                	sar    $1,%eax
    4cd0:	48 98                	cltq
    4cd2:	48 8b 4d 98          	mov    -0x68(%rbp),%rcx
    4cd6:	48 01 c1             	add    %rax,%rcx
    4cd9:	48 8d 45 b0          	lea    -0x50(%rbp),%rax
    4cdd:	48 89 ce             	mov    %rcx,%rsi
    4ce0:	48 89 c7             	mov    %rax,%rdi
    4ce3:	e8 48 c5 ff ff       	call   1230 <memcpy@plt>
    4ce8:	8b 45 a4             	mov    -0x5c(%rbp),%eax
    4ceb:	48 98                	cltq
    4ced:	48 8d 14 c5 00 00 00 	lea    0x0(,%rax,8),%rdx
    4cf4:	00 
    4cf5:	8b 45 a0             	mov    -0x60(%rbp),%eax
    4cf8:	0f af 45 a4          	imul   -0x5c(%rbp),%eax
    4cfc:	48 98                	cltq
    4cfe:	48 8d 0c c5 00 00 00 	lea    0x0(,%rax,8),%rcx
    4d05:	00 
    4d06:	48 8b 45 a8          	mov    -0x58(%rbp),%rax
    4d0a:	48 01 c1             	add    %rax,%rcx
    4d0d:	48 8d 45 b0          	lea    -0x50(%rbp),%rax
    4d11:	48 89 c6             	mov    %rax,%rsi
    4d14:	48 89 cf             	mov    %rcx,%rdi
    4d17:	e8 14 c5 ff ff       	call   1230 <memcpy@plt>
    4d1c:	83 6d a0 01          	subl   $0x1,-0x60(%rbp)
    4d20:	83 7d a0 00          	cmpl   $0x0,-0x60(%rbp)
    4d24:	79 8b                	jns    4cb1 <unpack_m_vecs+0x98>
    4d26:	90                   	nop
    4d27:	48 8b 45 f8          	mov    -0x8(%rbp),%rax
    4d2b:	64 48 33 04 25 28 00 	xor    %fs:0x28,%rax
    4d32:	00 00 
    4d34:	74 05                	je     4d3b <unpack_m_vecs+0x122>
    4d36:	e8 95 c4 ff ff       	call   11d0 <__stack_chk_fail@plt>
    4d3b:	c9                   	leave
    4d3c:	c3                   	ret

0000000000004d3d <pack_m_vecs>:
    4d3d:	f3 0f 1e fa          	endbr64
    4d41:	55                   	push   %rbp
    4d42:	48 89 e5             	mov    %rsp,%rbp
    4d45:	48 83 ec 30          	sub    $0x30,%rsp
    4d49:	48 89 7d e8          	mov    %rdi,-0x18(%rbp)
    4d4d:	48 89 75 e0          	mov    %rsi,-0x20(%rbp)
    4d51:	89 55 dc             	mov    %edx,-0x24(%rbp)
    4d54:	89 4d d8             	mov    %ecx,-0x28(%rbp)
    4d57:	8b 45 d8             	mov    -0x28(%rbp),%eax
    4d5a:	83 c0 0f             	add    $0xf,%eax
    4d5d:	8d 50 0f             	lea    0xf(%rax),%edx
    4d60:	85 c0                	test   %eax,%eax
    4d62:	0f 48 c2             	cmovs  %edx,%eax
    4d65:	c1 f8 04             	sar    $0x4,%eax
    4d68:	89 45 f4             	mov    %eax,-0xc(%rbp)
    4d6b:	48 8b 45 e8          	mov    -0x18(%rbp),%rax
    4d6f:	48 89 45 f8          	mov    %rax,-0x8(%rbp)
    4d73:	c7 45 f0 00 00 00 00 	movl   $0x0,-0x10(%rbp)
    4d7a:	eb 4f                	jmp    4dcb <pack_m_vecs+0x8e>
    4d7c:	8b 45 d8             	mov    -0x28(%rbp),%eax
    4d7f:	89 c2                	mov    %eax,%edx
    4d81:	c1 ea 1f             	shr    $0x1f,%edx
    4d84:	01 d0                	add    %edx,%eax
    4d86:	d1 f8                	sar    $1,%eax
    4d88:	48 63 d0             	movslq %eax,%rdx
    4d8b:	8b 45 f0             	mov    -0x10(%rbp),%eax
    4d8e:	0f af 45 f4          	imul   -0xc(%rbp),%eax
    4d92:	48 98                	cltq
    4d94:	48 8d 0c c5 00 00 00 	lea    0x0(,%rax,8),%rcx
    4d9b:	00 
    4d9c:	48 8b 45 f8          	mov    -0x8(%rbp),%rax
    4da0:	48 01 c1             	add    %rax,%rcx
    4da3:	8b 45 f0             	mov    -0x10(%rbp),%eax
    4da6:	0f af 45 d8          	imul   -0x28(%rbp),%eax
    4daa:	89 c6                	mov    %eax,%esi
    4dac:	c1 ee 1f             	shr    $0x1f,%esi
    4daf:	01 f0                	add    %esi,%eax
    4db1:	d1 f8                	sar    $1,%eax
    4db3:	48 98                	cltq
    4db5:	48 8b 75 e0          	mov    -0x20(%rbp),%rsi
    4db9:	48 01 f0             	add    %rsi,%rax
    4dbc:	48 89 ce             	mov    %rcx,%rsi
    4dbf:	48 89 c7             	mov    %rax,%rdi
    4dc2:	e8 89 c4 ff ff       	call   1250 <memmove@plt>
    4dc7:	83 45 f0 01          	addl   $0x1,-0x10(%rbp)
    4dcb:	8b 45 f0             	mov    -0x10(%rbp),%eax
    4dce:	3b 45 dc             	cmp    -0x24(%rbp),%eax
    4dd1:	7c a9                	jl     4d7c <pack_m_vecs+0x3f>
    4dd3:	90                   	nop
    4dd4:	90                   	nop
    4dd5:	c9                   	leave
    4dd6:	c3                   	ret

0000000000004dd7 <expand_P1_P2>:
    4dd7:	f3 0f 1e fa          	endbr64
    4ddb:	55                   	push   %rbp
    4ddc:	48 89 e5             	mov    %rsp,%rbp
    4ddf:	48 83 ec 20          	sub    $0x20,%rsp
    4de3:	48 89 7d f8          	mov    %rdi,-0x8(%rbp)
    4de7:	48 89 75 f0          	mov    %rsi,-0x10(%rbp)
    4deb:	48 89 55 e8          	mov    %rdx,-0x18(%rbp)
    4def:	48 8b 45 f8          	mov    -0x8(%rbp),%rax
    4df3:	8b 40 58             	mov    0x58(%rax),%eax
    4df6:	48 63 d0             	movslq %eax,%rdx
    4df9:	48 8b 45 f8          	mov    -0x8(%rbp),%rax
    4dfd:	8b 48 34             	mov    0x34(%rax),%ecx
    4e00:	48 8b 45 f8          	mov    -0x8(%rbp),%rax
    4e04:	8b 40 38             	mov    0x38(%rax),%eax
    4e07:	01 c8                	add    %ecx,%eax
    4e09:	48 98                	cltq
    4e0b:	48 8b 75 e8          	mov    -0x18(%rbp),%rsi
    4e0f:	48 8b 7d f0          	mov    -0x10(%rbp),%rdi
    4e13:	48 89 d1             	mov    %rdx,%rcx
    4e16:	48 89 f2             	mov    %rsi,%rdx
    4e19:	48 89 c6             	mov    %rax,%rsi
    4e1c:	e8 bd 64 00 00       	call   b2de <AES_128_CTR>
    4e21:	48 8b 45 f8          	mov    -0x8(%rbp),%rax
    4e25:	8b 08                	mov    (%rax),%ecx
    4e27:	48 8b 45 f8          	mov    -0x8(%rbp),%rax
    4e2b:	8b 50 04             	mov    0x4(%rax),%edx
    4e2e:	48 8b 45 f8          	mov    -0x8(%rbp),%rax
    4e32:	8b 40 08             	mov    0x8(%rax),%eax
    4e35:	29 c2                	sub    %eax,%edx
    4e37:	48 8b 45 f8          	mov    -0x8(%rbp),%rax
    4e3b:	8b 70 04             	mov    0x4(%rax),%esi
    4e3e:	48 8b 45 f8          	mov    -0x8(%rbp),%rax
    4e42:	8b 40 08             	mov    0x8(%rax),%eax
    4e45:	29 c6                	sub    %eax,%esi
    4e47:	89 f0                	mov    %esi,%eax
    4e49:	83 c0 01             	add    $0x1,%eax
    4e4c:	0f af c2             	imul   %edx,%eax
    4e4f:	89 c2                	mov    %eax,%edx
    4e51:	c1 ea 1f             	shr    $0x1f,%edx
    4e54:	01 d0                	add    %edx,%eax
    4e56:	d1 f8                	sar    $1,%eax
    4e58:	89 c2                	mov    %eax,%edx
    4e5a:	48 8b 45 f8          	mov    -0x8(%rbp),%rax
    4e5e:	8b 40 5c             	mov    0x5c(%rax),%eax
    4e61:	0f af d0             	imul   %eax,%edx
    4e64:	48 8b 45 f8          	mov    -0x8(%rbp),%rax
    4e68:	8b 70 04             	mov    0x4(%rax),%esi
    4e6b:	48 8b 45 f8          	mov    -0x8(%rbp),%rax
    4e6f:	8b 40 08             	mov    0x8(%rax),%eax
    4e72:	29 c6                	sub    %eax,%esi
    4e74:	48 8b 45 f8          	mov    -0x8(%rbp),%rax
    4e78:	8b 40 08             	mov    0x8(%rax),%eax
    4e7b:	0f af c6             	imul   %esi,%eax
    4e7e:	48 8b 75 f8          	mov    -0x8(%rbp),%rsi
    4e82:	8b 76 5c             	mov    0x5c(%rsi),%esi
    4e85:	0f af c6             	imul   %esi,%eax
    4e88:	01 d0                	add    %edx,%eax
    4e8a:	48 8b 55 f8          	mov    -0x8(%rbp),%rdx
    4e8e:	8b 7a 5c             	mov    0x5c(%rdx),%edi
    4e91:	99                   	cltd
    4e92:	f7 ff                	idiv   %edi
    4e94:	89 c2                	mov    %eax,%edx
    4e96:	48 8b 75 f0          	mov    -0x10(%rbp),%rsi
    4e9a:	48 8b 45 f0          	mov    -0x10(%rbp),%rax
    4e9e:	48 89 c7             	mov    %rax,%rdi
    4ea1:	e8 73 fd ff ff       	call   4c19 <unpack_m_vecs>
    4ea6:	90                   	nop
    4ea7:	c9                   	leave
    4ea8:	c3                   	ret

0000000000004ea9 <eval_public_map>:
    4ea9:	f3 0f 1e fa          	endbr64
    4ead:	55                   	push   %rbp
    4eae:	48 89 e5             	mov    %rsp,%rbp
    4eb1:	48 81 ec 00 10 00 00 	sub    $0x1000,%rsp
    4eb8:	48 83 0c 24 00       	orq    $0x0,(%rsp)
    4ebd:	48 81 ec 00 10 00 00 	sub    $0x1000,%rsp
    4ec4:	48 83 0c 24 00       	orq    $0x0,(%rsp)
    4ec9:	48 81 ec 50 09 00 00 	sub    $0x950,%rsp
    4ed0:	48 89 bd d8 d6 ff ff 	mov    %rdi,-0x2928(%rbp)
    4ed7:	48 89 b5 d0 d6 ff ff 	mov    %rsi,-0x2930(%rbp)
    4ede:	48 89 95 c8 d6 ff ff 	mov    %rdx,-0x2938(%rbp)
    4ee5:	48 89 8d c0 d6 ff ff 	mov    %rcx,-0x2940(%rbp)
    4eec:	4c 89 85 b8 d6 ff ff 	mov    %r8,-0x2948(%rbp)
    4ef3:	4c 89 8d b0 d6 ff ff 	mov    %r9,-0x2950(%rbp)
    4efa:	64 48 8b 04 25 28 00 	mov    %fs:0x28,%rax
    4f01:	00 00 
    4f03:	48 89 45 f8          	mov    %rax,-0x8(%rbp)
    4f07:	31 c0                	xor    %eax,%eax
    4f09:	48 8d 85 e0 d6 ff ff 	lea    -0x2920(%rbp),%rax
    4f10:	ba 80 28 00 00       	mov    $0x2880,%edx
    4f15:	be 00 00 00 00       	mov    $0x0,%esi
    4f1a:	48 89 c7             	mov    %rax,%rdi
    4f1d:	e8 de c2 ff ff       	call   1200 <memset@plt>
    4f22:	48 8d bd e0 d6 ff ff 	lea    -0x2920(%rbp),%rdi
    4f29:	4c 8b 85 d0 d6 ff ff 	mov    -0x2930(%rbp),%r8
    4f30:	48 8b 8d b8 d6 ff ff 	mov    -0x2948(%rbp),%rcx
    4f37:	48 8b 95 c0 d6 ff ff 	mov    -0x2940(%rbp),%rdx
    4f3e:	48 8b b5 c8 d6 ff ff 	mov    -0x2938(%rbp),%rsi
    4f45:	48 8b 85 d8 d6 ff ff 	mov    -0x2928(%rbp),%rax
    4f4c:	49 89 f9             	mov    %rdi,%r9
    4f4f:	48 89 c7             	mov    %rax,%rdi
    4f52:	e8 10 e4 ff ff       	call   3367 <m_calculate_PS_SPS>
    4f57:	48 c7 85 60 ff ff ff 	movq   $0x0,-0xa0(%rbp)
    4f5e:	00 00 00 00 
    4f62:	48 c7 85 68 ff ff ff 	movq   $0x0,-0x98(%rbp)
    4f69:	00 00 00 00 
    4f6d:	48 c7 85 70 ff ff ff 	movq   $0x0,-0x90(%rbp)
    4f74:	00 00 00 00 
    4f78:	48 c7 85 78 ff ff ff 	movq   $0x0,-0x88(%rbp)
    4f7f:	00 00 00 00 
    4f83:	48 c7 45 80 00 00 00 	movq   $0x0,-0x80(%rbp)
    4f8a:	00 
    4f8b:	48 c7 45 88 00 00 00 	movq   $0x0,-0x78(%rbp)
    4f92:	00 
    4f93:	48 c7 45 90 00 00 00 	movq   $0x0,-0x70(%rbp)
    4f9a:	00 
    4f9b:	48 c7 45 98 00 00 00 	movq   $0x0,-0x68(%rbp)
    4fa2:	00 
    4fa3:	48 c7 45 a0 00 00 00 	movq   $0x0,-0x60(%rbp)
    4faa:	00 
    4fab:	48 c7 45 a8 00 00 00 	movq   $0x0,-0x58(%rbp)
    4fb2:	00 
    4fb3:	48 c7 45 b0 00 00 00 	movq   $0x0,-0x50(%rbp)
    4fba:	00 
    4fbb:	48 c7 45 b8 00 00 00 	movq   $0x0,-0x48(%rbp)
    4fc2:	00 
    4fc3:	48 c7 45 c0 00 00 00 	movq   $0x0,-0x40(%rbp)
    4fca:	00 
    4fcb:	48 c7 45 c8 00 00 00 	movq   $0x0,-0x38(%rbp)
    4fd2:	00 
    4fd3:	48 c7 45 d0 00 00 00 	movq   $0x0,-0x30(%rbp)
    4fda:	00 
    4fdb:	48 c7 45 d8 00 00 00 	movq   $0x0,-0x28(%rbp)
    4fe2:	00 
    4fe3:	48 c7 45 e0 00 00 00 	movq   $0x0,-0x20(%rbp)
    4fea:	00 
    4feb:	c7 45 e8 00 00 00 00 	movl   $0x0,-0x18(%rbp)
    4ff2:	66 c7 45 ec 00 00    	movw   $0x0,-0x14(%rbp)
    4ff8:	48 8b 8d b0 d6 ff ff 	mov    -0x2950(%rbp),%rcx
    4fff:	48 8d 95 60 ff ff ff 	lea    -0xa0(%rbp),%rdx
    5006:	48 8d 85 e0 d6 ff ff 	lea    -0x2920(%rbp),%rax
    500d:	48 8b bd d8 d6 ff ff 	mov    -0x2928(%rbp),%rdi
    5014:	48 89 c6             	mov    %rax,%rsi
    5017:	e8 d1 e5 ff ff       	call   35ed <compute_rhs>
    501c:	90                   	nop
    501d:	48 8b 45 f8          	mov    -0x8(%rbp),%rax
    5021:	64 48 33 04 25 28 00 	xor    %fs:0x28,%rax
    5028:	00 00 
    502a:	74 05                	je     5031 <eval_public_map+0x188>
    502c:	e8 9f c1 ff ff       	call   11d0 <__stack_chk_fail@plt>
    5031:	c9                   	leave
    5032:	c3                   	ret

0000000000005033 <mayo_keypair>:
    5033:	f3 0f 1e fa          	endbr64
    5037:	55                   	push   %rbp
    5038:	48 89 e5             	mov    %rsp,%rbp
    503b:	48 83 ec 30          	sub    $0x30,%rsp
    503f:	48 89 7d e8          	mov    %rdi,-0x18(%rbp)
    5043:	48 89 75 e0          	mov    %rsi,-0x20(%rbp)
    5047:	48 89 55 d8          	mov    %rdx,-0x28(%rbp)
    504b:	c7 45 fc 00 00 00 00 	movl   $0x0,-0x4(%rbp)
    5052:	48 8b 55 d8          	mov    -0x28(%rbp),%rdx
    5056:	48 8b 4d e0          	mov    -0x20(%rbp),%rcx
    505a:	48 8b 45 e8          	mov    -0x18(%rbp),%rax
    505e:	48 89 ce             	mov    %rcx,%rsi
    5061:	48 89 c7             	mov    %rax,%rdi
    5064:	e8 1b 1a 00 00       	call   6a84 <mayo_keypair_compact>
    5069:	89 45 fc             	mov    %eax,-0x4(%rbp)
    506c:	83 7d fc 00          	cmpl   $0x0,-0x4(%rbp)
    5070:	90                   	nop
    5071:	f3 0f 1e fa          	endbr64
    5075:	8b 45 fc             	mov    -0x4(%rbp),%eax
    5078:	c9                   	leave
    5079:	c3                   	ret

000000000000507a <mayo_expand_sk>:
    507a:	f3 0f 1e fa          	endbr64
    507e:	55                   	push   %rbp
    507f:	48 89 e5             	mov    %rsp,%rbp
    5082:	48 81 ec e0 03 00 00 	sub    $0x3e0,%rsp
    5089:	48 89 bd 38 fc ff ff 	mov    %rdi,-0x3c8(%rbp)
    5090:	48 89 b5 30 fc ff ff 	mov    %rsi,-0x3d0(%rbp)
    5097:	48 89 95 28 fc ff ff 	mov    %rdx,-0x3d8(%rbp)
    509e:	64 48 8b 04 25 28 00 	mov    %fs:0x28,%rax
    50a5:	00 00 
    50a7:	48 89 45 f8          	mov    %rax,-0x8(%rbp)
    50ab:	31 c0                	xor    %eax,%eax
    50ad:	c7 85 40 fc ff ff 00 	movl   $0x0,-0x3c0(%rbp)
    50b4:	00 00 00 
    50b7:	48 8b 85 28 fc ff ff 	mov    -0x3d8(%rbp),%rax
    50be:	48 89 85 58 fc ff ff 	mov    %rax,-0x3a8(%rbp)
    50c5:	48 8b 85 28 fc ff ff 	mov    -0x3d8(%rbp),%rax
    50cc:	48 05 78 ce 0d 00    	add    $0xdce78,%rax
    50d2:	48 89 85 60 fc ff ff 	mov    %rax,-0x3a0(%rbp)
    50d9:	48 8b 85 38 fc ff ff 	mov    -0x3c8(%rbp),%rax
    50e0:	8b 40 08             	mov    0x8(%rax),%eax
    50e3:	89 85 44 fc ff ff    	mov    %eax,-0x3bc(%rbp)
    50e9:	48 8b 85 38 fc ff ff 	mov    -0x3c8(%rbp),%rax
    50f0:	8b 50 04             	mov    0x4(%rax),%edx
    50f3:	48 8b 85 38 fc ff ff 	mov    -0x3c8(%rbp),%rax
    50fa:	8b 40 08             	mov    0x8(%rax),%eax
    50fd:	29 c2                	sub    %eax,%edx
    50ff:	89 d0                	mov    %edx,%eax
    5101:	89 85 48 fc ff ff    	mov    %eax,-0x3b8(%rbp)
    5107:	48 8b 85 38 fc ff ff 	mov    -0x3c8(%rbp),%rax
    510e:	8b 40 24             	mov    0x24(%rax),%eax
    5111:	89 85 4c fc ff ff    	mov    %eax,-0x3b4(%rbp)
    5117:	48 8b 85 38 fc ff ff 	mov    -0x3c8(%rbp),%rax
    511e:	8b 40 58             	mov    0x58(%rax),%eax
    5121:	89 85 50 fc ff ff    	mov    %eax,-0x3b0(%rbp)
    5127:	48 8b 85 38 fc ff ff 	mov    -0x3c8(%rbp),%rax
    512e:	8b 40 50             	mov    0x50(%rax),%eax
    5131:	89 85 54 fc ff ff    	mov    %eax,-0x3ac(%rbp)
    5137:	48 8b 85 30 fc ff ff 	mov    -0x3d0(%rbp),%rax
    513e:	48 89 85 68 fc ff ff 	mov    %rax,-0x398(%rbp)
    5145:	48 8d 85 90 fc ff ff 	lea    -0x370(%rbp),%rax
    514c:	48 89 85 70 fc ff ff 	mov    %rax,-0x390(%rbp)
    5153:	8b 85 54 fc ff ff    	mov    -0x3ac(%rbp),%eax
    5159:	48 63 d0             	movslq %eax,%rdx
    515c:	8b 8d 50 fc ff ff    	mov    -0x3b0(%rbp),%ecx
    5162:	8b 85 4c fc ff ff    	mov    -0x3b4(%rbp),%eax
    5168:	01 c8                	add    %ecx,%eax
    516a:	48 63 f0             	movslq %eax,%rsi
    516d:	48 8b bd 68 fc ff ff 	mov    -0x398(%rbp),%rdi
    5174:	48 8d 85 90 fc ff ff 	lea    -0x370(%rbp),%rax
    517b:	48 89 d1             	mov    %rdx,%rcx
    517e:	48 89 fa             	mov    %rdi,%rdx
    5181:	48 89 c7             	mov    %rax,%rdi
    5184:	e8 fa 83 00 00       	call   d583 <shake256>
    5189:	8b 85 48 fc ff ff    	mov    -0x3b8(%rbp),%eax
    518f:	0f af 85 44 fc ff ff 	imul   -0x3bc(%rbp),%eax
    5196:	8b 95 50 fc ff ff    	mov    -0x3b0(%rbp),%edx
    519c:	48 63 d2             	movslq %edx,%rdx
    519f:	48 8d 8d 90 fc ff ff 	lea    -0x370(%rbp),%rcx
    51a6:	48 01 d1             	add    %rdx,%rcx
    51a9:	48 8b b5 60 fc ff ff 	mov    -0x3a0(%rbp),%rsi
    51b0:	89 c2                	mov    %eax,%edx
    51b2:	48 89 cf             	mov    %rcx,%rdi
    51b5:	e8 f1 e2 ff ff       	call   34ab <decode>
    51ba:	48 8b 95 70 fc ff ff 	mov    -0x390(%rbp),%rdx
    51c1:	48 8b 8d 58 fc ff ff 	mov    -0x3a8(%rbp),%rcx
    51c8:	48 8b 85 38 fc ff ff 	mov    -0x3c8(%rbp),%rax
    51cf:	48 89 ce             	mov    %rcx,%rsi
    51d2:	48 89 c7             	mov    %rax,%rdi
    51d5:	e8 fd fb ff ff       	call   4dd7 <expand_P1_P2>
    51da:	48 8b 85 38 fc ff ff 	mov    -0x3c8(%rbp),%rax
    51e1:	8b 50 04             	mov    0x4(%rax),%edx
    51e4:	48 8b 85 38 fc ff ff 	mov    -0x3c8(%rbp),%rax
    51eb:	8b 40 08             	mov    0x8(%rax),%eax
    51ee:	29 c2                	sub    %eax,%edx
    51f0:	48 8b 85 38 fc ff ff 	mov    -0x3c8(%rbp),%rax
    51f7:	8b 48 04             	mov    0x4(%rax),%ecx
    51fa:	48 8b 85 38 fc ff ff 	mov    -0x3c8(%rbp),%rax
    5201:	8b 40 08             	mov    0x8(%rax),%eax
    5204:	29 c1                	sub    %eax,%ecx
    5206:	89 c8                	mov    %ecx,%eax
    5208:	83 c0 01             	add    $0x1,%eax
    520b:	0f af c2             	imul   %edx,%eax
    520e:	89 c2                	mov    %eax,%edx
    5210:	c1 ea 1f             	shr    $0x1f,%edx
    5213:	01 d0                	add    %edx,%eax
    5215:	d1 f8                	sar    $1,%eax
    5217:	89 c2                	mov    %eax,%edx
    5219:	48 8b 85 38 fc ff ff 	mov    -0x3c8(%rbp),%rax
    5220:	8b 40 5c             	mov    0x5c(%rax),%eax
    5223:	0f af c2             	imul   %edx,%eax
    5226:	48 98                	cltq
    5228:	48 8d 14 c5 00 00 00 	lea    0x0(,%rax,8),%rdx
    522f:	00 
    5230:	48 8b 85 58 fc ff ff 	mov    -0x3a8(%rbp),%rax
    5237:	48 01 d0             	add    %rdx,%rax
    523a:	48 89 85 78 fc ff ff 	mov    %rax,-0x388(%rbp)
    5241:	48 8b 85 58 fc ff ff 	mov    -0x3a8(%rbp),%rax
    5248:	48 89 85 80 fc ff ff 	mov    %rax,-0x380(%rbp)
    524f:	48 8b 85 78 fc ff ff 	mov    -0x388(%rbp),%rax
    5256:	48 89 85 88 fc ff ff 	mov    %rax,-0x378(%rbp)
    525d:	48 8b 8d 88 fc ff ff 	mov    -0x378(%rbp),%rcx
    5264:	48 8b 95 60 fc ff ff 	mov    -0x3a0(%rbp),%rdx
    526b:	48 8b b5 80 fc ff ff 	mov    -0x380(%rbp),%rsi
    5272:	48 8b 85 38 fc ff ff 	mov    -0x3c8(%rbp),%rax
    5279:	48 89 c7             	mov    %rax,%rdi
    527c:	e8 73 dd ff ff       	call   2ff4 <P1P1t_times_O>
    5281:	48 8d 85 90 fc ff ff 	lea    -0x370(%rbp),%rax
    5288:	be 64 03 00 00       	mov    $0x364,%esi
    528d:	48 89 c7             	mov    %rax,%rdi
    5290:	e8 5c 8c 00 00       	call   def1 <mayo_secure_clear>
    5295:	8b 85 40 fc ff ff    	mov    -0x3c0(%rbp),%eax
    529b:	48 8b 7d f8          	mov    -0x8(%rbp),%rdi
    529f:	64 48 33 3c 25 28 00 	xor    %fs:0x28,%rdi
    52a6:	00 00 
    52a8:	74 05                	je     52af <mayo_expand_sk+0x235>
    52aa:	e8 21 bf ff ff       	call   11d0 <__stack_chk_fail@plt>
    52af:	c9                   	leave
    52b0:	c3                   	ret

00000000000052b1 <mayo_sign_signature>:
    52b1:	f3 0f 1e fa          	endbr64
    52b5:	4c 8d 54 24 08       	lea    0x8(%rsp),%r10
    52ba:	48 83 e4 e0          	and    $0xffffffffffffffe0,%rsp
    52be:	41 ff 72 f8          	push   -0x8(%r10)
    52c2:	55                   	push   %rbp
    52c3:	48 89 e5             	mov    %rsp,%rbp
    52c6:	41 57                	push   %r15
    52c8:	41 56                	push   %r14
    52ca:	41 55                	push   %r13
    52cc:	41 54                	push   %r12
    52ce:	41 52                	push   %r10
    52d0:	53                   	push   %rbx
    52d1:	4c 8d 9c 24 00 60 f1 	lea    -0xea000(%rsp),%r11
    52d8:	ff 
    52d9:	48 81 ec 00 10 00 00 	sub    $0x1000,%rsp
    52e0:	48 83 0c 24 00       	orq    $0x0,(%rsp)
    52e5:	4c 39 dc             	cmp    %r11,%rsp
    52e8:	75 ef                	jne    52d9 <mayo_sign_signature+0x28>
    52ea:	48 81 ec c0 01 00 00 	sub    $0x1c0,%rsp
    52f1:	48 89 fb             	mov    %rdi,%rbx
    52f4:	48 89 b5 28 5e f1 ff 	mov    %rsi,-0xea1d8(%rbp)
    52fb:	48 89 95 20 5e f1 ff 	mov    %rdx,-0xea1e0(%rbp)
    5302:	48 89 8d a0 5e f1 ff 	mov    %rcx,-0xea160(%rbp)
    5309:	4d 89 c4             	mov    %r8,%r12
    530c:	4d 89 cd             	mov    %r9,%r13
    530f:	64 48 8b 04 25 28 00 	mov    %fs:0x28,%rax
    5316:	00 00 
    5318:	48 89 45 c8          	mov    %rax,-0x38(%rbp)
    531c:	31 c0                	xor    %eax,%eax
    531e:	48 c7 85 70 8c ff ff 	movq   $0x0,-0x7390(%rbp)
    5325:	00 00 00 00 
    5329:	48 c7 85 78 8c ff ff 	movq   $0x0,-0x7388(%rbp)
    5330:	00 00 00 00 
    5334:	48 8d bd 80 8c ff ff 	lea    -0x7380(%rbp),%rdi
    533b:	ba 40 73 00 00       	mov    $0x7340,%edx
    5340:	be 00 00 00 00       	mov    $0x0,%esi
    5345:	e8 b6 be ff ff       	call   1200 <memset@plt>
    534a:	48 c7 85 d0 72 ff ff 	movq   $0x0,-0x8d30(%rbp)
    5351:	00 00 00 00 
    5355:	48 c7 85 d8 72 ff ff 	movq   $0x0,-0x8d28(%rbp)
    535c:	00 00 00 00 
    5360:	48 c7 85 e0 72 ff ff 	movq   $0x0,-0x8d20(%rbp)
    5367:	00 00 00 00 
    536b:	48 c7 85 e8 72 ff ff 	movq   $0x0,-0x8d18(%rbp)
    5372:	00 00 00 00 
    5376:	48 c7 85 f0 72 ff ff 	movq   $0x0,-0x8d10(%rbp)
    537d:	00 00 00 00 
    5381:	48 c7 85 f8 72 ff ff 	movq   $0x0,-0x8d08(%rbp)
    5388:	00 00 00 00 
    538c:	48 c7 85 00 73 ff ff 	movq   $0x0,-0x8d00(%rbp)
    5393:	00 00 00 00 
    5397:	48 c7 85 08 73 ff ff 	movq   $0x0,-0x8cf8(%rbp)
    539e:	00 00 00 00 
    53a2:	48 c7 85 10 73 ff ff 	movq   $0x0,-0x8cf0(%rbp)
    53a9:	00 00 00 00 
    53ad:	48 c7 85 18 73 ff ff 	movq   $0x0,-0x8ce8(%rbp)
    53b4:	00 00 00 00 
    53b8:	48 c7 85 20 73 ff ff 	movq   $0x0,-0x8ce0(%rbp)
    53bf:	00 00 00 00 
    53c3:	48 c7 85 28 73 ff ff 	movq   $0x0,-0x8cd8(%rbp)
    53ca:	00 00 00 00 
    53ce:	48 c7 85 30 73 ff ff 	movq   $0x0,-0x8cd0(%rbp)
    53d5:	00 00 00 00 
    53d9:	48 c7 85 38 73 ff ff 	movq   $0x0,-0x8cc8(%rbp)
    53e0:	00 00 00 00 
    53e4:	48 c7 85 40 73 ff ff 	movq   $0x0,-0x8cc0(%rbp)
    53eb:	00 00 00 00 
    53ef:	48 c7 85 48 73 ff ff 	movq   $0x0,-0x8cb8(%rbp)
    53f6:	00 00 00 00 
    53fa:	48 c7 85 50 73 ff ff 	movq   $0x0,-0x8cb0(%rbp)
    5401:	00 00 00 00 
    5405:	48 c7 85 58 73 ff ff 	movq   $0x0,-0x8ca8(%rbp)
    540c:	00 00 00 00 
    5410:	48 c7 85 60 73 ff ff 	movq   $0x0,-0x8ca0(%rbp)
    5417:	00 00 00 00 
    541b:	48 c7 85 68 73 ff ff 	movq   $0x0,-0x8c98(%rbp)
    5422:	00 00 00 00 
    5426:	48 c7 85 70 73 ff ff 	movq   $0x0,-0x8c90(%rbp)
    542d:	00 00 00 00 
    5431:	48 c7 85 78 73 ff ff 	movq   $0x0,-0x8c88(%rbp)
    5438:	00 00 00 00 
    543c:	48 c7 85 80 73 ff ff 	movq   $0x0,-0x8c80(%rbp)
    5443:	00 00 00 00 
    5447:	48 c7 85 88 73 ff ff 	movq   $0x0,-0x8c78(%rbp)
    544e:	00 00 00 00 
    5452:	48 c7 85 90 73 ff ff 	movq   $0x0,-0x8c70(%rbp)
    5459:	00 00 00 00 
    545d:	c7 85 98 73 ff ff 00 	movl   $0x0,-0x8c68(%rbp)
    5464:	00 00 00 
    5467:	c6 85 9c 73 ff ff 00 	movb   $0x0,-0x8c64(%rbp)
    546e:	48 89 d8             	mov    %rbx,%rax
    5471:	44 8b 33             	mov    (%rbx),%r14d
    5474:	8b 73 04             	mov    0x4(%rbx),%esi
    5477:	89 b5 78 5e f1 ff    	mov    %esi,-0xea188(%rbp)
    547d:	8b 73 08             	mov    0x8(%rbx),%esi
    5480:	89 b5 7c 5e f1 ff    	mov    %esi,-0xea184(%rbp)
    5486:	8b 5b 0c             	mov    0xc(%rbx),%ebx
    5489:	89 9d ac 5e f1 ff    	mov    %ebx,-0xea154(%rbp)
    548f:	8b 78 20             	mov    0x20(%rax),%edi
    5492:	89 bd 90 5e f1 ff    	mov    %edi,-0xea170(%rbp)
    5498:	8b 78 28             	mov    0x28(%rax),%edi
    549b:	89 bd 70 5e f1 ff    	mov    %edi,-0xea190(%rbp)
    54a1:	44 8b 58 2c          	mov    0x2c(%rax),%r11d
    54a5:	44 89 9d 60 5e f1 ff 	mov    %r11d,-0xea1a0(%rbp)
    54ac:	44 8b 58 48          	mov    0x48(%rax),%r11d
    54b0:	44 89 9d 34 5e f1 ff 	mov    %r11d,-0xea1cc(%rbp)
    54b7:	44 8b 78 54          	mov    0x54(%rax),%r15d
    54bb:	44 8b 58 50          	mov    0x50(%rax),%r11d
    54bf:	44 89 9d 98 5e f1 ff 	mov    %r11d,-0xea168(%rbp)
    54c6:	8b 58 4c             	mov    0x4c(%rax),%ebx
    54c9:	48 8d 95 10 98 f1 ff 	lea    -0xe67f0(%rbp),%rdx
    54d0:	4c 89 ad 58 5e f1 ff 	mov    %r13,-0xea1a8(%rbp)
    54d7:	4c 89 ee             	mov    %r13,%rsi
    54da:	48 89 85 88 5e f1 ff 	mov    %rax,-0xea178(%rbp)
    54e1:	48 89 c7             	mov    %rax,%rdi
    54e4:	e8 91 fb ff ff       	call   507a <mayo_expand_sk>
    54e9:	89 85 a8 5e f1 ff    	mov    %eax,-0xea158(%rbp)
    54ef:	85 c0                	test   %eax,%eax
    54f1:	0f 84 ca 00 00 00    	je     55c1 <mayo_sign_signature+0x310>
    54f7:	48 8d bd a0 73 ff ff 	lea    -0x8c60(%rbp),%rdi
    54fe:	be 9c 03 00 00       	mov    $0x39c,%esi
    5503:	e8 e9 89 00 00       	call   def1 <mayo_secure_clear>
    5508:	48 8d bd 40 77 ff ff 	lea    -0x88c0(%rbp),%rdi
    550f:	be a8 06 00 00       	mov    $0x6a8,%esi
    5514:	e8 d8 89 00 00       	call   def1 <mayo_secure_clear>
    5519:	48 8d bd 70 8c ff ff 	lea    -0x7390(%rbp),%rdi
    5520:	be 50 73 00 00       	mov    $0x7350,%esi
    5525:	e8 c7 89 00 00       	call   def1 <mayo_secure_clear>
    552a:	48 8d bd d0 72 ff ff 	lea    -0x8d30(%rbp),%rdi
    5531:	be cd 00 00 00       	mov    $0xcd,%esi
    5536:	e8 b6 89 00 00       	call   def1 <mayo_secure_clear>
    553b:	48 8d 9d 10 98 f1 ff 	lea    -0xe67f0(%rbp),%rbx
    5542:	48 8d bd 88 66 ff ff 	lea    -0x9978(%rbp),%rdi
    5549:	be 6e 09 00 00       	mov    $0x96e,%esi
    554e:	e8 9e 89 00 00       	call   def1 <mayo_secure_clear>
    5553:	be e8 d7 0d 00       	mov    $0xdd7e8,%esi
    5558:	48 89 df             	mov    %rbx,%rdi
    555b:	e8 91 89 00 00       	call   def1 <mayo_secure_clear>
    5560:	48 8d bd a0 71 ff ff 	lea    -0x8e60(%rbp),%rdi
    5567:	be 8e 00 00 00       	mov    $0x8e,%esi
    556c:	e8 80 89 00 00       	call   def1 <mayo_secure_clear>
    5571:	48 8d bd 30 72 ff ff 	lea    -0x8dd0(%rbp),%rdi
    5578:	be 91 00 00 00       	mov    $0x91,%esi
    557d:	e8 6f 89 00 00       	call   def1 <mayo_secure_clear>
    5582:	48 8d bd b0 5e f1 ff 	lea    -0xea150(%rbp),%rdi
    5589:	be 60 39 00 00       	mov    $0x3960,%esi
    558e:	e8 5e 89 00 00       	call   def1 <mayo_secure_clear>
    5593:	48 8b 45 c8          	mov    -0x38(%rbp),%rax
    5597:	64 48 33 04 25 28 00 	xor    %fs:0x28,%rax
    559e:	00 00 
    55a0:	0f 85 32 13 00 00    	jne    68d8 <mayo_sign_signature+0x1627>
    55a6:	8b 85 a8 5e f1 ff    	mov    -0xea158(%rbp),%eax
    55ac:	48 8d 65 d0          	lea    -0x30(%rbp),%rsp
    55b0:	5b                   	pop    %rbx
    55b1:	41 5a                	pop    %r10
    55b3:	41 5c                	pop    %r12
    55b5:	41 5d                	pop    %r13
    55b7:	41 5e                	pop    %r14
    55b9:	41 5f                	pop    %r15
    55bb:	5d                   	pop    %rbp
    55bc:	49 8d 62 f8          	lea    -0x8(%r10),%rsp
    55c0:	c3                   	ret
    55c1:	4d 63 df             	movslq %r15d,%r11
    55c4:	4c 8d ad 30 72 ff ff 	lea    -0x8dd0(%rbp),%r13
    55cb:	4c 89 e1             	mov    %r12,%rcx
    55ce:	48 8b 95 a0 5e f1 ff 	mov    -0xea160(%rbp),%rdx
    55d5:	4c 89 9d 48 5e f1 ff 	mov    %r11,-0xea1b8(%rbp)
    55dc:	4c 89 de             	mov    %r11,%rsi
    55df:	4c 89 ef             	mov    %r13,%rdi
    55e2:	e8 9c 7f 00 00       	call   d583 <shake256>
    55e7:	48 8b 85 88 5e f1 ff 	mov    -0xea178(%rbp),%rax
    55ee:	44 8b 60 04          	mov    0x4(%rax),%r12d
    55f2:	44 8b 50 08          	mov    0x8(%rax),%r10d
    55f6:	44 89 95 50 5e f1 ff 	mov    %r10d,-0xea1b0(%rbp)
    55fd:	44 8b 48 5c          	mov    0x5c(%rax),%r9d
    5601:	44 89 8d 40 5e f1 ff 	mov    %r9d,-0xea1c0(%rbp)
    5608:	48 8d bd b0 5e f1 ff 	lea    -0xea150(%rbp),%rdi
    560f:	ba 60 39 00 00       	mov    $0x3960,%edx
    5614:	be 00 00 00 00       	mov    $0x0,%esi
    5619:	e8 e2 bb ff ff       	call   1200 <memset@plt>
    561e:	4c 63 d3             	movslq %ebx,%r10
    5621:	4c 03 ad 48 5e f1 ff 	add    -0xea1b8(%rbp),%r13
    5628:	4c 89 95 38 5e f1 ff 	mov    %r10,-0xea1c8(%rbp)
    562f:	4c 89 d6             	mov    %r10,%rsi
    5632:	4c 89 ef             	mov    %r13,%rdi
    5635:	e8 6d 32 00 00       	call   88a7 <randombytes>
    563a:	89 85 a8 5e f1 ff    	mov    %eax,-0xea158(%rbp)
    5640:	85 c0                	test   %eax,%eax
    5642:	74 0f                	je     5653 <mayo_sign_signature+0x3a2>
    5644:	c7 85 a8 5e f1 ff 01 	movl   $0x1,-0xea158(%rbp)
    564b:	00 00 00 
    564e:	e9 a4 fe ff ff       	jmp    54f7 <mayo_sign_signature+0x246>
    5653:	8b 8d 78 5e f1 ff    	mov    -0xea188(%rbp),%ecx
    5659:	8b 85 7c 5e f1 ff    	mov    -0xea184(%rbp),%eax
    565f:	29 c1                	sub    %eax,%ecx
    5661:	89 8d a0 5e f1 ff    	mov    %ecx,-0xea160(%rbp)
    5667:	0f af 85 ac 5e f1 ff 	imul   -0xea154(%rbp),%eax
    566e:	89 85 68 5e f1 ff    	mov    %eax,-0xea198(%rbp)
    5674:	8d 48 01             	lea    0x1(%rax),%ecx
    5677:	89 8d 80 5e f1 ff    	mov    %ecx,-0xea180(%rbp)
    567d:	44 2b a5 50 5e f1 ff 	sub    -0xea1b0(%rbp),%r12d
    5684:	41 8d 44 24 01       	lea    0x1(%r12),%eax
    5689:	44 0f af e0          	imul   %eax,%r12d
    568d:	44 89 e1             	mov    %r12d,%ecx
    5690:	c1 e9 1f             	shr    $0x1f,%ecx
    5693:	89 c8                	mov    %ecx,%eax
    5695:	44 01 e0             	add    %r12d,%eax
    5698:	d1 f8                	sar    $1,%eax
    569a:	0f af 85 40 5e f1 ff 	imul   -0xea1c0(%rbp),%eax
    56a1:	48 98                	cltq
    56a3:	48 8d 8c c5 10 98 f1 	lea    -0xe67f0(%rbp,%rax,8),%rcx
    56aa:	ff 
    56ab:	48 89 8d 50 5e f1 ff 	mov    %rcx,-0xea1b0(%rbp)
    56b2:	4c 63 8d 98 5e f1 ff 	movslq -0xea168(%rbp),%r9
    56b9:	48 8b 85 48 5e f1 ff 	mov    -0xea1b8(%rbp),%rax
    56c0:	48 03 85 38 5e f1 ff 	add    -0xea1c8(%rbp),%rax
    56c7:	4c 8d a5 30 72 ff ff 	lea    -0x8dd0(%rbp),%r12
    56ce:	48 89 85 40 5e f1 ff 	mov    %rax,-0xea1c0(%rbp)
    56d5:	49 8d 3c 04          	lea    (%r12,%rax,1),%rdi
    56d9:	4c 89 8d 48 5e f1 ff 	mov    %r9,-0xea1b8(%rbp)
    56e0:	4c 89 ca             	mov    %r9,%rdx
    56e3:	48 8b b5 58 5e f1 ff 	mov    -0xea1a8(%rbp),%rsi
    56ea:	e8 41 bb ff ff       	call   1230 <memcpy@plt>
    56ef:	44 01 fb             	add    %r15d,%ebx
    56f2:	44 8b bd 98 5e f1 ff 	mov    -0xea168(%rbp),%r15d
    56f9:	89 9d 98 5e f1 ff    	mov    %ebx,-0xea168(%rbp)
    56ff:	41 01 df             	add    %ebx,%r15d
    5702:	49 63 cf             	movslq %r15d,%rcx
    5705:	48 8d 9d 00 70 ff ff 	lea    -0x9000(%rbp),%rbx
    570c:	4c 89 e2             	mov    %r12,%rdx
    570f:	48 8b b5 38 5e f1 ff 	mov    -0xea1c8(%rbp),%rsi
    5716:	48 89 df             	mov    %rbx,%rdi
    5719:	e8 65 7e 00 00       	call   d583 <shake256>
    571e:	48 8b 95 38 5e f1 ff 	mov    -0xea1c8(%rbp),%rdx
    5725:	48 89 de             	mov    %rbx,%rsi
    5728:	4c 89 ef             	mov    %r13,%rdi
    572b:	e8 00 bb ff ff       	call   1230 <memcpy@plt>
    5730:	48 8b 9d 48 5e f1 ff 	mov    -0xea1b8(%rbp),%rbx
    5737:	48 03 9d 40 5e f1 ff 	add    -0xea1c0(%rbp),%rbx
    573e:	4d 8d 14 1c          	lea    (%r12,%rbx,1),%r10
    5742:	4c 89 95 48 5e f1 ff 	mov    %r10,-0xea1b8(%rbp)
    5749:	48 63 8d 98 5e f1 ff 	movslq -0xea168(%rbp),%rcx
    5750:	48 63 b5 90 5e f1 ff 	movslq -0xea170(%rbp),%rsi
    5757:	48 8d 9d 30 70 ff ff 	lea    -0x8fd0(%rbp),%rbx
    575e:	4c 89 e2             	mov    %r12,%rdx
    5761:	48 89 df             	mov    %rbx,%rdi
    5764:	e8 1a 7e 00 00       	call   d583 <shake256>
    5769:	48 8d b5 80 70 ff ff 	lea    -0x8f80(%rbp),%rsi
    5770:	44 89 f2             	mov    %r14d,%edx
    5773:	48 89 df             	mov    %rbx,%rdi
    5776:	e8 30 dd ff ff       	call   34ab <decode>
    577b:	8b 95 ac 5e f1 ff    	mov    -0xea154(%rbp),%edx
    5781:	0f af 95 70 5e f1 ff 	imul   -0xea190(%rbp),%edx
    5788:	8b 85 60 5e f1 ff    	mov    -0xea1a0(%rbp),%eax
    578e:	01 d0                	add    %edx,%eax
    5790:	48 98                	cltq
    5792:	48 89 85 60 5e f1 ff 	mov    %rax,-0xea1a0(%rbp)
    5799:	48 63 d2             	movslq %edx,%rdx
    579c:	48 8d 84 15 a0 73 ff 	lea    -0x8c60(%rbp,%rdx,1),%rax
    57a3:	ff 
    57a4:	48 89 85 58 5e f1 ff 	mov    %rax,-0xea1a8(%rbp)
    57ab:	44 8b 85 a8 5e f1 ff 	mov    -0xea158(%rbp),%r8d
    57b2:	44 89 85 90 5e f1 ff 	mov    %r8d,-0xea170(%rbp)
    57b9:	41 83 c7 01          	add    $0x1,%r15d
    57bd:	49 63 c7             	movslq %r15d,%rax
    57c0:	48 89 85 40 5e f1 ff 	mov    %rax,-0xea1c0(%rbp)
    57c7:	e9 ab 00 00 00       	jmp    5877 <mayo_sign_signature+0x5c6>
    57cc:	48 8d 9d d0 72 ff ff 	lea    -0x8d30(%rbp),%rbx
    57d3:	8b 95 68 5e f1 ff    	mov    -0xea198(%rbp),%edx
    57d9:	48 89 de             	mov    %rbx,%rsi
    57dc:	48 8b bd 58 5e f1 ff 	mov    -0xea1a8(%rbp),%rdi
    57e3:	e8 c3 dc ff ff       	call   34ab <decode>
    57e8:	48 8d 95 10 71 ff ff 	lea    -0x8ef0(%rbp),%rdx
    57ef:	48 8d b5 70 8c ff ff 	lea    -0x7390(%rbp),%rsi
    57f6:	48 83 ec 08          	sub    $0x8,%rsp
    57fa:	8b 85 80 5e f1 ff    	mov    -0xea180(%rbp),%eax
    5800:	50                   	push   %rax
    5801:	41 56                	push   %r14
    5803:	8b 85 7c 5e f1 ff    	mov    -0xea184(%rbp),%eax
    5809:	50                   	push   %rax
    580a:	44 8b 8d ac 5e f1 ff 	mov    -0xea154(%rbp),%r9d
    5811:	4c 8d 85 f0 7d ff ff 	lea    -0x8210(%rbp),%r8
    5818:	48 89 d9             	mov    %rbx,%rcx
    581b:	48 8b bd 88 5e f1 ff 	mov    -0xea178(%rbp),%rdi
    5822:	e8 8b 27 00 00       	call   7fb2 <sample_solution>
    5827:	48 83 c4 20          	add    $0x20,%rsp
    582b:	85 c0                	test   %eax,%eax
    582d:	0f 85 5e 01 00 00    	jne    5991 <mayo_sign_signature+0x6e0>
    5833:	48 8d bd b0 5e f1 ff 	lea    -0xea150(%rbp),%rdi
    583a:	ba 60 39 00 00       	mov    $0x3960,%edx
    583f:	be 00 00 00 00       	mov    $0x0,%esi
    5844:	e8 b7 b9 ff ff       	call   1200 <memset@plt>
    5849:	48 8d bd 70 8c ff ff 	lea    -0x7390(%rbp),%rdi
    5850:	ba 50 73 00 00       	mov    $0x7350,%edx
    5855:	be 00 00 00 00       	mov    $0x0,%esi
    585a:	e8 a1 b9 ff ff       	call   1200 <memset@plt>
    585f:	83 85 90 5e f1 ff 01 	addl   $0x1,-0xea170(%rbp)
    5866:	8b 85 90 5e f1 ff    	mov    -0xea170(%rbp),%eax
    586c:	3d 00 01 00 00       	cmp    $0x100,%eax
    5871:	0f 84 1a 01 00 00    	je     5991 <mayo_sign_signature+0x6e0>
    5877:	48 8b 85 48 5e f1 ff 	mov    -0xea1b8(%rbp),%rax
    587e:	0f b6 8d 90 5e f1 ff 	movzbl -0xea170(%rbp),%ecx
    5885:	88 08                	mov    %cl,(%rax)
    5887:	48 8d 95 30 72 ff ff 	lea    -0x8dd0(%rbp),%rdx
    588e:	48 8d bd a0 73 ff ff 	lea    -0x8c60(%rbp),%rdi
    5895:	48 8b 8d 40 5e f1 ff 	mov    -0xea1c0(%rbp),%rcx
    589c:	48 8b b5 60 5e f1 ff 	mov    -0xea1a0(%rbp),%rsi
    58a3:	e8 db 7c 00 00       	call   d583 <shake256>
    58a8:	83 bd ac 5e f1 ff 00 	cmpl   $0x0,-0xea154(%rbp)
    58af:	7e 4f                	jle    5900 <mayo_sign_signature+0x64f>
    58b1:	4c 63 bd 70 5e f1 ff 	movslq -0xea190(%rbp),%r15
    58b8:	4c 8d ad a0 73 ff ff 	lea    -0x8c60(%rbp),%r13
    58bf:	48 63 85 a0 5e f1 ff 	movslq -0xea160(%rbp),%rax
    58c6:	48 89 85 98 5e f1 ff 	mov    %rax,-0xea168(%rbp)
    58cd:	4c 8d a5 40 77 ff ff 	lea    -0x88c0(%rbp),%r12
    58d4:	8b 9d a8 5e f1 ff    	mov    -0xea158(%rbp),%ebx
    58da:	8b 95 a0 5e f1 ff    	mov    -0xea160(%rbp),%edx
    58e0:	4c 89 e6             	mov    %r12,%rsi
    58e3:	4c 89 ef             	mov    %r13,%rdi
    58e6:	e8 c0 db ff ff       	call   34ab <decode>
    58eb:	83 c3 01             	add    $0x1,%ebx
    58ee:	4d 01 fd             	add    %r15,%r13
    58f1:	4c 03 a5 98 5e f1 ff 	add    -0xea168(%rbp),%r12
    58f8:	39 9d ac 5e f1 ff    	cmp    %ebx,-0xea154(%rbp)
    58fe:	75 da                	jne    58da <mayo_sign_signature+0x629>
    5900:	48 8d 9d 70 8c ff ff 	lea    -0x7390(%rbp),%rbx
    5907:	4c 8d a5 b0 5e f1 ff 	lea    -0xea150(%rbp),%r12
    590e:	48 8d 8d 10 98 f1 ff 	lea    -0xe67f0(%rbp),%rcx
    5915:	48 8d b5 40 77 ff ff 	lea    -0x88c0(%rbp),%rsi
    591c:	49 89 d9             	mov    %rbx,%r9
    591f:	4d 89 e0             	mov    %r12,%r8
    5922:	48 8b 95 50 5e f1 ff 	mov    -0xea1b0(%rbp),%rdx
    5929:	4c 8b bd 88 5e f1 ff 	mov    -0xea178(%rbp),%r15
    5930:	4c 89 ff             	mov    %r15,%rdi
    5933:	e8 34 d8 ff ff       	call   316c <compute_M_and_VPV>
    5938:	48 8d 8d 10 71 ff ff 	lea    -0x8ef0(%rbp),%rcx
    593f:	48 8d 95 80 70 ff ff 	lea    -0x8f80(%rbp),%rdx
    5946:	48 89 de             	mov    %rbx,%rsi
    5949:	4c 89 ff             	mov    %r15,%rdi
    594c:	e8 9c dc ff ff       	call   35ed <compute_rhs>
    5951:	48 89 da             	mov    %rbx,%rdx
    5954:	4c 89 e6             	mov    %r12,%rsi
    5957:	4c 89 ff             	mov    %r15,%rdi
    595a:	e8 89 e6 ff ff       	call   3fe8 <compute_A>
    595f:	45 85 f6             	test   %r14d,%r14d
    5962:	0f 8e 64 fe ff ff    	jle    57cc <mayo_sign_signature+0x51b>
    5968:	48 63 8d 80 5e f1 ff 	movslq -0xea180(%rbp),%rcx
    596f:	48 8d 94 0d 70 8c ff 	lea    -0x7390(%rbp,%rcx,1),%rdx
    5976:	ff 
    5977:	8b 85 a8 5e f1 ff    	mov    -0xea158(%rbp),%eax
    597d:	83 c0 01             	add    $0x1,%eax
    5980:	c6 42 ff 00          	movb   $0x0,-0x1(%rdx)
    5984:	48 01 ca             	add    %rcx,%rdx
    5987:	44 39 f0             	cmp    %r14d,%eax
    598a:	75 f1                	jne    597d <mayo_sign_signature+0x6cc>
    598c:	e9 3b fe ff ff       	jmp    57cc <mayo_sign_signature+0x51b>
    5991:	83 bd ac 5e f1 ff 00 	cmpl   $0x0,-0xea154(%rbp)
    5998:	7f 55                	jg     59ef <mayo_sign_signature+0x73e>
    599a:	8b 95 78 5e f1 ff    	mov    -0xea188(%rbp),%edx
    59a0:	0f af 95 ac 5e f1 ff 	imul   -0xea154(%rbp),%edx
    59a7:	48 8d bd 30 85 ff ff 	lea    -0x7ad0(%rbp),%rdi
    59ae:	4c 8b b5 28 5e f1 ff 	mov    -0xea1d8(%rbp),%r14
    59b5:	4c 89 f6             	mov    %r14,%rsi
    59b8:	e8 9b db ff ff       	call   3558 <encode>
    59bd:	48 63 9d 34 5e f1 ff 	movslq -0xea1cc(%rbp),%rbx
    59c4:	48 89 df             	mov    %rbx,%rdi
    59c7:	48 8b 95 38 5e f1 ff 	mov    -0xea1c8(%rbp),%rdx
    59ce:	48 29 d7             	sub    %rdx,%rdi
    59d1:	4c 01 f7             	add    %r14,%rdi
    59d4:	48 8d b5 00 70 ff ff 	lea    -0x9000(%rbp),%rsi
    59db:	e8 50 b8 ff ff       	call   1230 <memcpy@plt>
    59e0:	48 8b 85 20 5e f1 ff 	mov    -0xea1e0(%rbp),%rax
    59e7:	48 89 18             	mov    %rbx,(%rax)
    59ea:	e9 08 fb ff ff       	jmp    54f7 <mayo_sign_signature+0x246>
    59ef:	48 63 85 7c 5e f1 ff 	movslq -0xea184(%rbp),%rax
    59f6:	48 89 85 60 5e f1 ff 	mov    %rax,-0xea1a0(%rbp)
    59fd:	48 8d 85 f0 7d ff ff 	lea    -0x8210(%rbp),%rax
    5a04:	48 89 85 90 5e f1 ff 	mov    %rax,-0xea170(%rbp)
    5a0b:	48 63 85 a0 5e f1 ff 	movslq -0xea160(%rbp),%rax
    5a12:	48 89 85 68 5e f1 ff 	mov    %rax,-0xea198(%rbp)
    5a19:	4c 8d b5 40 77 ff ff 	lea    -0x88c0(%rbp),%r14
    5a20:	48 63 85 78 5e f1 ff 	movslq -0xea188(%rbp),%rax
    5a27:	48 89 85 70 5e f1 ff 	mov    %rax,-0xea190(%rbp)
    5a2e:	4c 8d ad 30 85 ff ff 	lea    -0x7ad0(%rbp),%r13
    5a35:	8b 85 a8 5e f1 ff    	mov    -0xea158(%rbp),%eax
    5a3b:	89 85 98 5e f1 ff    	mov    %eax,-0xea168(%rbp)
    5a41:	4c 8d bd a0 71 ff ff 	lea    -0x8e60(%rbp),%r15
    5a48:	48 8b b5 90 5e f1 ff 	mov    -0xea170(%rbp),%rsi
    5a4f:	48 89 b5 80 5e f1 ff 	mov    %rsi,-0xea180(%rbp)
    5a56:	48 8d bd 88 66 ff ff 	lea    -0x9978(%rbp),%rdi
    5a5d:	41 b9 01 00 00 00    	mov    $0x1,%r9d
    5a63:	8b 9d a0 5e f1 ff    	mov    -0xea160(%rbp),%ebx
    5a69:	41 89 d8             	mov    %ebx,%r8d
    5a6c:	8b 8d 7c 5e f1 ff    	mov    -0xea184(%rbp),%ecx
    5a72:	4c 89 fa             	mov    %r15,%rdx
    5a75:	e8 3b c2 ff ff       	call   1cb5 <mat_mul>
    5a7a:	89 d8                	mov    %ebx,%eax
    5a7c:	85 db                	test   %ebx,%ebx
    5a7e:	0f 8e 03 0e 00 00    	jle    6887 <mayo_sign_signature+0x15d6>
    5a84:	bb 00 00 00 00       	mov    $0x0,%ebx
    5a89:	8d 48 ff             	lea    -0x1(%rax),%ecx
    5a8c:	48 89 8d 88 5e f1 ff 	mov    %rcx,-0xea178(%rbp)
    5a93:	83 e0 3f             	and    $0x3f,%eax
    5a96:	0f 84 51 08 00 00    	je     62ed <mayo_sign_signature+0x103c>
    5a9c:	48 83 f8 01          	cmp    $0x1,%rax
    5aa0:	0f 84 1f 08 00 00    	je     62c5 <mayo_sign_signature+0x1014>
    5aa6:	48 83 f8 02          	cmp    $0x2,%rax
    5aaa:	0f 84 fd 07 00 00    	je     62ad <mayo_sign_signature+0xffc>
    5ab0:	48 83 f8 03          	cmp    $0x3,%rax
    5ab4:	0f 84 db 07 00 00    	je     6295 <mayo_sign_signature+0xfe4>
    5aba:	48 83 f8 04          	cmp    $0x4,%rax
    5abe:	0f 84 b9 07 00 00    	je     627d <mayo_sign_signature+0xfcc>
    5ac4:	48 83 f8 05          	cmp    $0x5,%rax
    5ac8:	0f 84 97 07 00 00    	je     6265 <mayo_sign_signature+0xfb4>
    5ace:	48 83 f8 06          	cmp    $0x6,%rax
    5ad2:	0f 84 75 07 00 00    	je     624d <mayo_sign_signature+0xf9c>
    5ad8:	48 83 f8 07          	cmp    $0x7,%rax
    5adc:	0f 84 53 07 00 00    	je     6235 <mayo_sign_signature+0xf84>
    5ae2:	48 83 f8 08          	cmp    $0x8,%rax
    5ae6:	0f 84 31 07 00 00    	je     621d <mayo_sign_signature+0xf6c>
    5aec:	48 83 f8 09          	cmp    $0x9,%rax
    5af0:	0f 84 0f 07 00 00    	je     6205 <mayo_sign_signature+0xf54>
    5af6:	48 83 f8 0a          	cmp    $0xa,%rax
    5afa:	0f 84 ed 06 00 00    	je     61ed <mayo_sign_signature+0xf3c>
    5b00:	48 83 f8 0b          	cmp    $0xb,%rax
    5b04:	0f 84 cb 06 00 00    	je     61d5 <mayo_sign_signature+0xf24>
    5b0a:	48 83 f8 0c          	cmp    $0xc,%rax
    5b0e:	0f 84 a9 06 00 00    	je     61bd <mayo_sign_signature+0xf0c>
    5b14:	48 83 f8 0d          	cmp    $0xd,%rax
    5b18:	0f 84 87 06 00 00    	je     61a5 <mayo_sign_signature+0xef4>
    5b1e:	48 83 f8 0e          	cmp    $0xe,%rax
    5b22:	0f 84 65 06 00 00    	je     618d <mayo_sign_signature+0xedc>
    5b28:	48 83 f8 0f          	cmp    $0xf,%rax
    5b2c:	0f 84 43 06 00 00    	je     6175 <mayo_sign_signature+0xec4>
    5b32:	48 83 f8 10          	cmp    $0x10,%rax
    5b36:	0f 84 21 06 00 00    	je     615d <mayo_sign_signature+0xeac>
    5b3c:	48 83 f8 11          	cmp    $0x11,%rax
    5b40:	0f 84 ff 05 00 00    	je     6145 <mayo_sign_signature+0xe94>
    5b46:	48 83 f8 12          	cmp    $0x12,%rax
    5b4a:	0f 84 dd 05 00 00    	je     612d <mayo_sign_signature+0xe7c>
    5b50:	48 83 f8 13          	cmp    $0x13,%rax
    5b54:	0f 84 bb 05 00 00    	je     6115 <mayo_sign_signature+0xe64>
    5b5a:	48 83 f8 14          	cmp    $0x14,%rax
    5b5e:	0f 84 99 05 00 00    	je     60fd <mayo_sign_signature+0xe4c>
    5b64:	48 83 f8 15          	cmp    $0x15,%rax
    5b68:	0f 84 77 05 00 00    	je     60e5 <mayo_sign_signature+0xe34>
    5b6e:	48 83 f8 16          	cmp    $0x16,%rax
    5b72:	0f 84 55 05 00 00    	je     60cd <mayo_sign_signature+0xe1c>
    5b78:	48 83 f8 17          	cmp    $0x17,%rax
    5b7c:	0f 84 33 05 00 00    	je     60b5 <mayo_sign_signature+0xe04>
    5b82:	48 83 f8 18          	cmp    $0x18,%rax
    5b86:	0f 84 11 05 00 00    	je     609d <mayo_sign_signature+0xdec>
    5b8c:	48 83 f8 19          	cmp    $0x19,%rax
    5b90:	0f 84 ef 04 00 00    	je     6085 <mayo_sign_signature+0xdd4>
    5b96:	48 83 f8 1a          	cmp    $0x1a,%rax
    5b9a:	0f 84 cd 04 00 00    	je     606d <mayo_sign_signature+0xdbc>
    5ba0:	48 83 f8 1b          	cmp    $0x1b,%rax
    5ba4:	0f 84 ab 04 00 00    	je     6055 <mayo_sign_signature+0xda4>
    5baa:	48 83 f8 1c          	cmp    $0x1c,%rax
    5bae:	0f 84 89 04 00 00    	je     603d <mayo_sign_signature+0xd8c>
    5bb4:	48 83 f8 1d          	cmp    $0x1d,%rax
    5bb8:	0f 84 67 04 00 00    	je     6025 <mayo_sign_signature+0xd74>
    5bbe:	48 83 f8 1e          	cmp    $0x1e,%rax
    5bc2:	0f 84 45 04 00 00    	je     600d <mayo_sign_signature+0xd5c>
    5bc8:	48 83 f8 1f          	cmp    $0x1f,%rax
    5bcc:	0f 84 23 04 00 00    	je     5ff5 <mayo_sign_signature+0xd44>
    5bd2:	48 83 f8 20          	cmp    $0x20,%rax
    5bd6:	0f 84 01 04 00 00    	je     5fdd <mayo_sign_signature+0xd2c>
    5bdc:	48 83 f8 21          	cmp    $0x21,%rax
    5be0:	0f 84 df 03 00 00    	je     5fc5 <mayo_sign_signature+0xd14>
    5be6:	48 83 f8 22          	cmp    $0x22,%rax
    5bea:	0f 84 bd 03 00 00    	je     5fad <mayo_sign_signature+0xcfc>
    5bf0:	48 83 f8 23          	cmp    $0x23,%rax
    5bf4:	0f 84 9b 03 00 00    	je     5f95 <mayo_sign_signature+0xce4>
    5bfa:	48 83 f8 24          	cmp    $0x24,%rax
    5bfe:	0f 84 79 03 00 00    	je     5f7d <mayo_sign_signature+0xccc>
    5c04:	48 83 f8 25          	cmp    $0x25,%rax
    5c08:	0f 84 57 03 00 00    	je     5f65 <mayo_sign_signature+0xcb4>
    5c0e:	48 83 f8 26          	cmp    $0x26,%rax
    5c12:	0f 84 35 03 00 00    	je     5f4d <mayo_sign_signature+0xc9c>
    5c18:	48 83 f8 27          	cmp    $0x27,%rax
    5c1c:	0f 84 13 03 00 00    	je     5f35 <mayo_sign_signature+0xc84>
